
./ctarget:     file format elf64-x86-64


Disassembly of section .init:

0000000000400c60 <_init>:
  400c60:	48 83 ec 08          	sub    $0x8,%rsp
  400c64:	48 8b 05 8d 33 20 00 	mov    0x20338d(%rip),%rax        # 603ff8 <_DYNAMIC+0x1d0>
  400c6b:	48 85 c0             	test   %rax,%rax
  400c6e:	74 05                	je     400c75 <_init+0x15>
  400c70:	e8 2b 01 00 00       	callq  400da0 <__gmon_start__@plt>
  400c75:	48 83 c4 08          	add    $0x8,%rsp
  400c79:	c3                   	retq   

Disassembly of section .plt:

0000000000400c80 <strcasecmp@plt-0x10>:
  400c80:	ff 35 82 33 20 00    	pushq  0x203382(%rip)        # 604008 <_GLOBAL_OFFSET_TABLE_+0x8>
  400c86:	ff 25 84 33 20 00    	jmpq   *0x203384(%rip)        # 604010 <_GLOBAL_OFFSET_TABLE_+0x10>
  400c8c:	0f 1f 40 00          	nopl   0x0(%rax)

0000000000400c90 <strcasecmp@plt>:
  400c90:	ff 25 82 33 20 00    	jmpq   *0x203382(%rip)        # 604018 <_GLOBAL_OFFSET_TABLE_+0x18>
  400c96:	68 00 00 00 00       	pushq  $0x0
  400c9b:	e9 e0 ff ff ff       	jmpq   400c80 <_init+0x20>

0000000000400ca0 <__errno_location@plt>:
  400ca0:	ff 25 7a 33 20 00    	jmpq   *0x20337a(%rip)        # 604020 <_GLOBAL_OFFSET_TABLE_+0x20>
  400ca6:	68 01 00 00 00       	pushq  $0x1
  400cab:	e9 d0 ff ff ff       	jmpq   400c80 <_init+0x20>

0000000000400cb0 <srandom@plt>:
  400cb0:	ff 25 72 33 20 00    	jmpq   *0x203372(%rip)        # 604028 <_GLOBAL_OFFSET_TABLE_+0x28>
  400cb6:	68 02 00 00 00       	pushq  $0x2
  400cbb:	e9 c0 ff ff ff       	jmpq   400c80 <_init+0x20>

0000000000400cc0 <strncmp@plt>:
  400cc0:	ff 25 6a 33 20 00    	jmpq   *0x20336a(%rip)        # 604030 <_GLOBAL_OFFSET_TABLE_+0x30>
  400cc6:	68 03 00 00 00       	pushq  $0x3
  400ccb:	e9 b0 ff ff ff       	jmpq   400c80 <_init+0x20>

0000000000400cd0 <strcpy@plt>:
  400cd0:	ff 25 62 33 20 00    	jmpq   *0x203362(%rip)        # 604038 <_GLOBAL_OFFSET_TABLE_+0x38>
  400cd6:	68 04 00 00 00       	pushq  $0x4
  400cdb:	e9 a0 ff ff ff       	jmpq   400c80 <_init+0x20>

0000000000400ce0 <puts@plt>:
  400ce0:	ff 25 5a 33 20 00    	jmpq   *0x20335a(%rip)        # 604040 <_GLOBAL_OFFSET_TABLE_+0x40>
  400ce6:	68 05 00 00 00       	pushq  $0x5
  400ceb:	e9 90 ff ff ff       	jmpq   400c80 <_init+0x20>

0000000000400cf0 <write@plt>:
  400cf0:	ff 25 52 33 20 00    	jmpq   *0x203352(%rip)        # 604048 <_GLOBAL_OFFSET_TABLE_+0x48>
  400cf6:	68 06 00 00 00       	pushq  $0x6
  400cfb:	e9 80 ff ff ff       	jmpq   400c80 <_init+0x20>

0000000000400d00 <__stack_chk_fail@plt>:
  400d00:	ff 25 4a 33 20 00    	jmpq   *0x20334a(%rip)        # 604050 <_GLOBAL_OFFSET_TABLE_+0x50>
  400d06:	68 07 00 00 00       	pushq  $0x7
  400d0b:	e9 70 ff ff ff       	jmpq   400c80 <_init+0x20>

0000000000400d10 <mmap@plt>:
  400d10:	ff 25 42 33 20 00    	jmpq   *0x203342(%rip)        # 604058 <_GLOBAL_OFFSET_TABLE_+0x58>
  400d16:	68 08 00 00 00       	pushq  $0x8
  400d1b:	e9 60 ff ff ff       	jmpq   400c80 <_init+0x20>

0000000000400d20 <memset@plt>:
  400d20:	ff 25 3a 33 20 00    	jmpq   *0x20333a(%rip)        # 604060 <_GLOBAL_OFFSET_TABLE_+0x60>
  400d26:	68 09 00 00 00       	pushq  $0x9
  400d2b:	e9 50 ff ff ff       	jmpq   400c80 <_init+0x20>

0000000000400d30 <alarm@plt>:
  400d30:	ff 25 32 33 20 00    	jmpq   *0x203332(%rip)        # 604068 <_GLOBAL_OFFSET_TABLE_+0x68>
  400d36:	68 0a 00 00 00       	pushq  $0xa
  400d3b:	e9 40 ff ff ff       	jmpq   400c80 <_init+0x20>

0000000000400d40 <close@plt>:
  400d40:	ff 25 2a 33 20 00    	jmpq   *0x20332a(%rip)        # 604070 <_GLOBAL_OFFSET_TABLE_+0x70>
  400d46:	68 0b 00 00 00       	pushq  $0xb
  400d4b:	e9 30 ff ff ff       	jmpq   400c80 <_init+0x20>

0000000000400d50 <read@plt>:
  400d50:	ff 25 22 33 20 00    	jmpq   *0x203322(%rip)        # 604078 <_GLOBAL_OFFSET_TABLE_+0x78>
  400d56:	68 0c 00 00 00       	pushq  $0xc
  400d5b:	e9 20 ff ff ff       	jmpq   400c80 <_init+0x20>

0000000000400d60 <__libc_start_main@plt>:
  400d60:	ff 25 1a 33 20 00    	jmpq   *0x20331a(%rip)        # 604080 <_GLOBAL_OFFSET_TABLE_+0x80>
  400d66:	68 0d 00 00 00       	pushq  $0xd
  400d6b:	e9 10 ff ff ff       	jmpq   400c80 <_init+0x20>

0000000000400d70 <signal@plt>:
  400d70:	ff 25 12 33 20 00    	jmpq   *0x203312(%rip)        # 604088 <_GLOBAL_OFFSET_TABLE_+0x88>
  400d76:	68 0e 00 00 00       	pushq  $0xe
  400d7b:	e9 00 ff ff ff       	jmpq   400c80 <_init+0x20>

0000000000400d80 <gethostbyname@plt>:
  400d80:	ff 25 0a 33 20 00    	jmpq   *0x20330a(%rip)        # 604090 <_GLOBAL_OFFSET_TABLE_+0x90>
  400d86:	68 0f 00 00 00       	pushq  $0xf
  400d8b:	e9 f0 fe ff ff       	jmpq   400c80 <_init+0x20>

0000000000400d90 <__memmove_chk@plt>:
  400d90:	ff 25 02 33 20 00    	jmpq   *0x203302(%rip)        # 604098 <_GLOBAL_OFFSET_TABLE_+0x98>
  400d96:	68 10 00 00 00       	pushq  $0x10
  400d9b:	e9 e0 fe ff ff       	jmpq   400c80 <_init+0x20>

0000000000400da0 <__gmon_start__@plt>:
  400da0:	ff 25 fa 32 20 00    	jmpq   *0x2032fa(%rip)        # 6040a0 <_GLOBAL_OFFSET_TABLE_+0xa0>
  400da6:	68 11 00 00 00       	pushq  $0x11
  400dab:	e9 d0 fe ff ff       	jmpq   400c80 <_init+0x20>

0000000000400db0 <strtol@plt>:
  400db0:	ff 25 f2 32 20 00    	jmpq   *0x2032f2(%rip)        # 6040a8 <_GLOBAL_OFFSET_TABLE_+0xa8>
  400db6:	68 12 00 00 00       	pushq  $0x12
  400dbb:	e9 c0 fe ff ff       	jmpq   400c80 <_init+0x20>

0000000000400dc0 <memcpy@plt>:
  400dc0:	ff 25 ea 32 20 00    	jmpq   *0x2032ea(%rip)        # 6040b0 <_GLOBAL_OFFSET_TABLE_+0xb0>
  400dc6:	68 13 00 00 00       	pushq  $0x13
  400dcb:	e9 b0 fe ff ff       	jmpq   400c80 <_init+0x20>

0000000000400dd0 <time@plt>:
  400dd0:	ff 25 e2 32 20 00    	jmpq   *0x2032e2(%rip)        # 6040b8 <_GLOBAL_OFFSET_TABLE_+0xb8>
  400dd6:	68 14 00 00 00       	pushq  $0x14
  400ddb:	e9 a0 fe ff ff       	jmpq   400c80 <_init+0x20>

0000000000400de0 <random@plt>:
  400de0:	ff 25 da 32 20 00    	jmpq   *0x2032da(%rip)        # 6040c0 <_GLOBAL_OFFSET_TABLE_+0xc0>
  400de6:	68 15 00 00 00       	pushq  $0x15
  400deb:	e9 90 fe ff ff       	jmpq   400c80 <_init+0x20>

0000000000400df0 <_IO_getc@plt>:
  400df0:	ff 25 d2 32 20 00    	jmpq   *0x2032d2(%rip)        # 6040c8 <_GLOBAL_OFFSET_TABLE_+0xc8>
  400df6:	68 16 00 00 00       	pushq  $0x16
  400dfb:	e9 80 fe ff ff       	jmpq   400c80 <_init+0x20>

0000000000400e00 <__isoc99_sscanf@plt>:
  400e00:	ff 25 ca 32 20 00    	jmpq   *0x2032ca(%rip)        # 6040d0 <_GLOBAL_OFFSET_TABLE_+0xd0>
  400e06:	68 17 00 00 00       	pushq  $0x17
  400e0b:	e9 70 fe ff ff       	jmpq   400c80 <_init+0x20>

0000000000400e10 <munmap@plt>:
  400e10:	ff 25 c2 32 20 00    	jmpq   *0x2032c2(%rip)        # 6040d8 <_GLOBAL_OFFSET_TABLE_+0xd8>
  400e16:	68 18 00 00 00       	pushq  $0x18
  400e1b:	e9 60 fe ff ff       	jmpq   400c80 <_init+0x20>

0000000000400e20 <__printf_chk@plt>:
  400e20:	ff 25 ba 32 20 00    	jmpq   *0x2032ba(%rip)        # 6040e0 <_GLOBAL_OFFSET_TABLE_+0xe0>
  400e26:	68 19 00 00 00       	pushq  $0x19
  400e2b:	e9 50 fe ff ff       	jmpq   400c80 <_init+0x20>

0000000000400e30 <fopen@plt>:
  400e30:	ff 25 b2 32 20 00    	jmpq   *0x2032b2(%rip)        # 6040e8 <_GLOBAL_OFFSET_TABLE_+0xe8>
  400e36:	68 1a 00 00 00       	pushq  $0x1a
  400e3b:	e9 40 fe ff ff       	jmpq   400c80 <_init+0x20>

0000000000400e40 <getopt@plt>:
  400e40:	ff 25 aa 32 20 00    	jmpq   *0x2032aa(%rip)        # 6040f0 <_GLOBAL_OFFSET_TABLE_+0xf0>
  400e46:	68 1b 00 00 00       	pushq  $0x1b
  400e4b:	e9 30 fe ff ff       	jmpq   400c80 <_init+0x20>

0000000000400e50 <strtoul@plt>:
  400e50:	ff 25 a2 32 20 00    	jmpq   *0x2032a2(%rip)        # 6040f8 <_GLOBAL_OFFSET_TABLE_+0xf8>
  400e56:	68 1c 00 00 00       	pushq  $0x1c
  400e5b:	e9 20 fe ff ff       	jmpq   400c80 <_init+0x20>

0000000000400e60 <gethostname@plt>:
  400e60:	ff 25 9a 32 20 00    	jmpq   *0x20329a(%rip)        # 604100 <_GLOBAL_OFFSET_TABLE_+0x100>
  400e66:	68 1d 00 00 00       	pushq  $0x1d
  400e6b:	e9 10 fe ff ff       	jmpq   400c80 <_init+0x20>

0000000000400e70 <exit@plt>:
  400e70:	ff 25 92 32 20 00    	jmpq   *0x203292(%rip)        # 604108 <_GLOBAL_OFFSET_TABLE_+0x108>
  400e76:	68 1e 00 00 00       	pushq  $0x1e
  400e7b:	e9 00 fe ff ff       	jmpq   400c80 <_init+0x20>

0000000000400e80 <connect@plt>:
  400e80:	ff 25 8a 32 20 00    	jmpq   *0x20328a(%rip)        # 604110 <_GLOBAL_OFFSET_TABLE_+0x110>
  400e86:	68 1f 00 00 00       	pushq  $0x1f
  400e8b:	e9 f0 fd ff ff       	jmpq   400c80 <_init+0x20>

0000000000400e90 <__fprintf_chk@plt>:
  400e90:	ff 25 82 32 20 00    	jmpq   *0x203282(%rip)        # 604118 <_GLOBAL_OFFSET_TABLE_+0x118>
  400e96:	68 20 00 00 00       	pushq  $0x20
  400e9b:	e9 e0 fd ff ff       	jmpq   400c80 <_init+0x20>

0000000000400ea0 <__sprintf_chk@plt>:
  400ea0:	ff 25 7a 32 20 00    	jmpq   *0x20327a(%rip)        # 604120 <_GLOBAL_OFFSET_TABLE_+0x120>
  400ea6:	68 21 00 00 00       	pushq  $0x21
  400eab:	e9 d0 fd ff ff       	jmpq   400c80 <_init+0x20>

0000000000400eb0 <socket@plt>:
  400eb0:	ff 25 72 32 20 00    	jmpq   *0x203272(%rip)        # 604128 <_GLOBAL_OFFSET_TABLE_+0x128>
  400eb6:	68 22 00 00 00       	pushq  $0x22
  400ebb:	e9 c0 fd ff ff       	jmpq   400c80 <_init+0x20>

Disassembly of section .text:

0000000000400ec0 <_start>:
  400ec0:	31 ed                	xor    %ebp,%ebp
  400ec2:	49 89 d1             	mov    %rdx,%r9
  400ec5:	5e                   	pop    %rsi
  400ec6:	48 89 e2             	mov    %rsp,%rdx
  400ec9:	48 83 e4 f0          	and    $0xfffffffffffffff0,%rsp
  400ecd:	50                   	push   %rax
  400ece:	54                   	push   %rsp
  400ecf:	49 c7 c0 e0 2e 40 00 	mov    $0x402ee0,%r8
  400ed6:	48 c7 c1 70 2e 40 00 	mov    $0x402e70,%rcx
  400edd:	48 c7 c7 93 11 40 00 	mov    $0x401193,%rdi
  400ee4:	e8 77 fe ff ff       	callq  400d60 <__libc_start_main@plt>
  400ee9:	f4                   	hlt    
  400eea:	66 0f 1f 44 00 00    	nopw   0x0(%rax,%rax,1)

0000000000400ef0 <deregister_tm_clones>:
  400ef0:	b8 b7 44 60 00       	mov    $0x6044b7,%eax
  400ef5:	55                   	push   %rbp
  400ef6:	48 2d b0 44 60 00    	sub    $0x6044b0,%rax
  400efc:	48 83 f8 0e          	cmp    $0xe,%rax
  400f00:	48 89 e5             	mov    %rsp,%rbp
  400f03:	77 02                	ja     400f07 <deregister_tm_clones+0x17>
  400f05:	5d                   	pop    %rbp
  400f06:	c3                   	retq   
  400f07:	b8 00 00 00 00       	mov    $0x0,%eax
  400f0c:	48 85 c0             	test   %rax,%rax
  400f0f:	74 f4                	je     400f05 <deregister_tm_clones+0x15>
  400f11:	5d                   	pop    %rbp
  400f12:	bf b0 44 60 00       	mov    $0x6044b0,%edi
  400f17:	ff e0                	jmpq   *%rax
  400f19:	0f 1f 80 00 00 00 00 	nopl   0x0(%rax)

0000000000400f20 <register_tm_clones>:
  400f20:	b8 b0 44 60 00       	mov    $0x6044b0,%eax
  400f25:	55                   	push   %rbp
  400f26:	48 2d b0 44 60 00    	sub    $0x6044b0,%rax
  400f2c:	48 c1 f8 03          	sar    $0x3,%rax
  400f30:	48 89 e5             	mov    %rsp,%rbp
  400f33:	48 89 c2             	mov    %rax,%rdx
  400f36:	48 c1 ea 3f          	shr    $0x3f,%rdx
  400f3a:	48 01 d0             	add    %rdx,%rax
  400f3d:	48 d1 f8             	sar    %rax
  400f40:	75 02                	jne    400f44 <register_tm_clones+0x24>
  400f42:	5d                   	pop    %rbp
  400f43:	c3                   	retq   
  400f44:	ba 00 00 00 00       	mov    $0x0,%edx
  400f49:	48 85 d2             	test   %rdx,%rdx
  400f4c:	74 f4                	je     400f42 <register_tm_clones+0x22>
  400f4e:	5d                   	pop    %rbp
  400f4f:	48 89 c6             	mov    %rax,%rsi
  400f52:	bf b0 44 60 00       	mov    $0x6044b0,%edi
  400f57:	ff e2                	jmpq   *%rdx
  400f59:	0f 1f 80 00 00 00 00 	nopl   0x0(%rax)

0000000000400f60 <__do_global_dtors_aux>:
  400f60:	80 3d 89 35 20 00 00 	cmpb   $0x0,0x203589(%rip)        # 6044f0 <completed.6973>
  400f67:	75 11                	jne    400f7a <__do_global_dtors_aux+0x1a>
  400f69:	55                   	push   %rbp
  400f6a:	48 89 e5             	mov    %rsp,%rbp
  400f6d:	e8 7e ff ff ff       	callq  400ef0 <deregister_tm_clones>
  400f72:	5d                   	pop    %rbp
  400f73:	c6 05 76 35 20 00 01 	movb   $0x1,0x203576(%rip)        # 6044f0 <completed.6973>
  400f7a:	f3 c3                	repz retq 
  400f7c:	0f 1f 40 00          	nopl   0x0(%rax)

0000000000400f80 <frame_dummy>:
  400f80:	48 83 3d 98 2e 20 00 	cmpq   $0x0,0x202e98(%rip)        # 603e20 <__JCR_END__>
  400f87:	00 
  400f88:	74 1e                	je     400fa8 <frame_dummy+0x28>
  400f8a:	b8 00 00 00 00       	mov    $0x0,%eax
  400f8f:	48 85 c0             	test   %rax,%rax
  400f92:	74 14                	je     400fa8 <frame_dummy+0x28>
  400f94:	55                   	push   %rbp
  400f95:	bf 20 3e 60 00       	mov    $0x603e20,%edi
  400f9a:	48 89 e5             	mov    %rsp,%rbp
  400f9d:	ff d0                	callq  *%rax
  400f9f:	5d                   	pop    %rbp
  400fa0:	e9 7b ff ff ff       	jmpq   400f20 <register_tm_clones>
  400fa5:	0f 1f 00             	nopl   (%rax)
  400fa8:	e9 73 ff ff ff       	jmpq   400f20 <register_tm_clones>
  400fad:	0f 1f 00             	nopl   (%rax)

0000000000400fb0 <usage>:
  400fb0:	48 83 ec 08          	sub    $0x8,%rsp
  400fb4:	48 89 fa             	mov    %rdi,%rdx
  400fb7:	83 3d 6a 35 20 00 00 	cmpl   $0x0,0x20356a(%rip)        # 604528 <is_checker>
  400fbe:	74 3e                	je     400ffe <usage+0x4e>
  400fc0:	be f8 2e 40 00       	mov    $0x402ef8,%esi
  400fc5:	bf 01 00 00 00       	mov    $0x1,%edi
  400fca:	b8 00 00 00 00       	mov    $0x0,%eax
  400fcf:	e8 4c fe ff ff       	callq  400e20 <__printf_chk@plt>
  400fd4:	bf 30 2f 40 00       	mov    $0x402f30,%edi
  400fd9:	e8 02 fd ff ff       	callq  400ce0 <puts@plt>
  400fde:	bf 68 30 40 00       	mov    $0x403068,%edi
  400fe3:	e8 f8 fc ff ff       	callq  400ce0 <puts@plt>
  400fe8:	bf 58 2f 40 00       	mov    $0x402f58,%edi
  400fed:	e8 ee fc ff ff       	callq  400ce0 <puts@plt>
  400ff2:	bf 82 30 40 00       	mov    $0x403082,%edi
  400ff7:	e8 e4 fc ff ff       	callq  400ce0 <puts@plt>
  400ffc:	eb 32                	jmp    401030 <usage+0x80>
  400ffe:	be 9e 30 40 00       	mov    $0x40309e,%esi
  401003:	bf 01 00 00 00       	mov    $0x1,%edi
  401008:	b8 00 00 00 00       	mov    $0x0,%eax
  40100d:	e8 0e fe ff ff       	callq  400e20 <__printf_chk@plt>
  401012:	bf 80 2f 40 00       	mov    $0x402f80,%edi
  401017:	e8 c4 fc ff ff       	callq  400ce0 <puts@plt>
  40101c:	bf a8 2f 40 00       	mov    $0x402fa8,%edi
  401021:	e8 ba fc ff ff       	callq  400ce0 <puts@plt>
  401026:	bf bc 30 40 00       	mov    $0x4030bc,%edi
  40102b:	e8 b0 fc ff ff       	callq  400ce0 <puts@plt>
  401030:	bf 00 00 00 00       	mov    $0x0,%edi
  401035:	e8 36 fe ff ff       	callq  400e70 <exit@plt>

000000000040103a <initialize_target>:
  40103a:	55                   	push   %rbp
  40103b:	53                   	push   %rbx
  40103c:	48 81 ec 18 21 00 00 	sub    $0x2118,%rsp
  401043:	89 f5                	mov    %esi,%ebp
  401045:	64 48 8b 04 25 28 00 	mov    %fs:0x28,%rax
  40104c:	00 00 
  40104e:	48 89 84 24 08 21 00 	mov    %rax,0x2108(%rsp)
  401055:	00 
  401056:	31 c0                	xor    %eax,%eax
  401058:	89 3d ba 34 20 00    	mov    %edi,0x2034ba(%rip)        # 604518 <check_level>
  40105e:	8b 3d 04 31 20 00    	mov    0x203104(%rip),%edi        # 604168 <target_id>
  401064:	e8 da 1d 00 00       	callq  402e43 <gencookie>
  401069:	89 05 b5 34 20 00    	mov    %eax,0x2034b5(%rip)        # 604524 <cookie>
  40106f:	89 c7                	mov    %eax,%edi
  401071:	e8 cd 1d 00 00       	callq  402e43 <gencookie>
  401076:	89 05 a4 34 20 00    	mov    %eax,0x2034a4(%rip)        # 604520 <authkey>
  40107c:	8b 05 e6 30 20 00    	mov    0x2030e6(%rip),%eax        # 604168 <target_id>
  401082:	8d 78 01             	lea    0x1(%rax),%edi
  401085:	e8 26 fc ff ff       	callq  400cb0 <srandom@plt>
  40108a:	e8 51 fd ff ff       	callq  400de0 <random@plt>
  40108f:	89 c7                	mov    %eax,%edi
  401091:	e8 d7 02 00 00       	callq  40136d <scramble>
  401096:	89 c3                	mov    %eax,%ebx
  401098:	85 ed                	test   %ebp,%ebp
  40109a:	74 18                	je     4010b4 <initialize_target+0x7a>
  40109c:	bf 00 00 00 00       	mov    $0x0,%edi
  4010a1:	e8 2a fd ff ff       	callq  400dd0 <time@plt>
  4010a6:	89 c7                	mov    %eax,%edi
  4010a8:	e8 03 fc ff ff       	callq  400cb0 <srandom@plt>
  4010ad:	e8 2e fd ff ff       	callq  400de0 <random@plt>
  4010b2:	eb 05                	jmp    4010b9 <initialize_target+0x7f>
  4010b4:	b8 00 00 00 00       	mov    $0x0,%eax
  4010b9:	01 c3                	add    %eax,%ebx
  4010bb:	0f b7 db             	movzwl %bx,%ebx
  4010be:	8d 04 dd 00 01 00 00 	lea    0x100(,%rbx,8),%eax
  4010c5:	89 c0                	mov    %eax,%eax
  4010c7:	48 89 05 d2 33 20 00 	mov    %rax,0x2033d2(%rip)        # 6044a0 <buf_offset>
  4010ce:	c6 05 73 40 20 00 63 	movb   $0x63,0x204073(%rip)        # 605148 <target_prefix>
  4010d5:	83 3d cc 33 20 00 00 	cmpl   $0x0,0x2033cc(%rip)        # 6044a8 <notify>
  4010dc:	0f 84 8f 00 00 00    	je     401171 <initialize_target+0x137>
  4010e2:	83 3d 3f 34 20 00 00 	cmpl   $0x0,0x20343f(%rip)        # 604528 <is_checker>
  4010e9:	0f 85 82 00 00 00    	jne    401171 <initialize_target+0x137>
  4010ef:	be 00 01 00 00       	mov    $0x100,%esi
  4010f4:	48 89 e7             	mov    %rsp,%rdi
  4010f7:	e8 64 fd ff ff       	callq  400e60 <gethostname@plt>
  4010fc:	85 c0                	test   %eax,%eax
  4010fe:	74 25                	je     401125 <initialize_target+0xeb>
  401100:	bf d8 2f 40 00       	mov    $0x402fd8,%edi
  401105:	e8 d6 fb ff ff       	callq  400ce0 <puts@plt>
  40110a:	bf 08 00 00 00       	mov    $0x8,%edi
  40110f:	e8 5c fd ff ff       	callq  400e70 <exit@plt>
  401114:	48 89 e6             	mov    %rsp,%rsi
  401117:	e8 74 fb ff ff       	callq  400c90 <strcasecmp@plt>
  40111c:	85 c0                	test   %eax,%eax
  40111e:	74 1a                	je     40113a <initialize_target+0x100>
  401120:	83 c3 01             	add    $0x1,%ebx
  401123:	eb 05                	jmp    40112a <initialize_target+0xf0>
  401125:	bb 00 00 00 00       	mov    $0x0,%ebx
  40112a:	48 63 c3             	movslq %ebx,%rax
  40112d:	48 8b 3c c5 80 41 60 	mov    0x604180(,%rax,8),%rdi
  401134:	00 
  401135:	48 85 ff             	test   %rdi,%rdi
  401138:	75 da                	jne    401114 <initialize_target+0xda>
  40113a:	48 8d bc 24 00 01 00 	lea    0x100(%rsp),%rdi
  401141:	00 
  401142:	e8 64 1a 00 00       	callq  402bab <init_driver>
  401147:	85 c0                	test   %eax,%eax
  401149:	79 26                	jns    401171 <initialize_target+0x137>
  40114b:	48 8d 94 24 00 01 00 	lea    0x100(%rsp),%rdx
  401152:	00 
  401153:	be 10 30 40 00       	mov    $0x403010,%esi
  401158:	bf 01 00 00 00       	mov    $0x1,%edi
  40115d:	b8 00 00 00 00       	mov    $0x0,%eax
  401162:	e8 b9 fc ff ff       	callq  400e20 <__printf_chk@plt>
  401167:	bf 08 00 00 00       	mov    $0x8,%edi
  40116c:	e8 ff fc ff ff       	callq  400e70 <exit@plt>
  401171:	48 8b 84 24 08 21 00 	mov    0x2108(%rsp),%rax
  401178:	00 
  401179:	64 48 33 04 25 28 00 	xor    %fs:0x28,%rax
  401180:	00 00 
  401182:	74 05                	je     401189 <initialize_target+0x14f>
  401184:	e8 77 fb ff ff       	callq  400d00 <__stack_chk_fail@plt>
  401189:	48 81 c4 18 21 00 00 	add    $0x2118,%rsp
  401190:	5b                   	pop    %rbx
  401191:	5d                   	pop    %rbp
  401192:	c3                   	retq   

0000000000401193 <main>:
  401193:	41 56                	push   %r14
  401195:	41 55                	push   %r13
  401197:	41 54                	push   %r12
  401199:	55                   	push   %rbp
  40119a:	53                   	push   %rbx
  40119b:	41 89 fc             	mov    %edi,%r12d
  40119e:	48 89 f3             	mov    %rsi,%rbx
  4011a1:	be 1e 1f 40 00       	mov    $0x401f1e,%esi
  4011a6:	bf 0b 00 00 00       	mov    $0xb,%edi
  4011ab:	e8 c0 fb ff ff       	callq  400d70 <signal@plt>
  4011b0:	be d0 1e 40 00       	mov    $0x401ed0,%esi
  4011b5:	bf 07 00 00 00       	mov    $0x7,%edi
  4011ba:	e8 b1 fb ff ff       	callq  400d70 <signal@plt>
  4011bf:	be 6c 1f 40 00       	mov    $0x401f6c,%esi
  4011c4:	bf 04 00 00 00       	mov    $0x4,%edi
  4011c9:	e8 a2 fb ff ff       	callq  400d70 <signal@plt>
  4011ce:	83 3d 53 33 20 00 00 	cmpl   $0x0,0x203353(%rip)        # 604528 <is_checker>
  4011d5:	74 20                	je     4011f7 <main+0x64>
  4011d7:	be ba 1f 40 00       	mov    $0x401fba,%esi
  4011dc:	bf 0e 00 00 00       	mov    $0xe,%edi
  4011e1:	e8 8a fb ff ff       	callq  400d70 <signal@plt>
  4011e6:	bf 05 00 00 00       	mov    $0x5,%edi
  4011eb:	e8 40 fb ff ff       	callq  400d30 <alarm@plt>
  4011f0:	bd da 30 40 00       	mov    $0x4030da,%ebp
  4011f5:	eb 05                	jmp    4011fc <main+0x69>
  4011f7:	bd d5 30 40 00       	mov    $0x4030d5,%ebp
  4011fc:	48 8b 05 bd 32 20 00 	mov    0x2032bd(%rip),%rax        # 6044c0 <stdin@@GLIBC_2.2.5>
  401203:	48 89 05 06 33 20 00 	mov    %rax,0x203306(%rip)        # 604510 <infile>
  40120a:	41 bd 00 00 00 00    	mov    $0x0,%r13d
  401210:	41 be 00 00 00 00    	mov    $0x0,%r14d
  401216:	e9 c6 00 00 00       	jmpq   4012e1 <main+0x14e>
  40121b:	83 e8 61             	sub    $0x61,%eax
  40121e:	3c 10                	cmp    $0x10,%al
  401220:	0f 87 9c 00 00 00    	ja     4012c2 <main+0x12f>
  401226:	0f b6 c0             	movzbl %al,%eax
  401229:	ff 24 c5 20 31 40 00 	jmpq   *0x403120(,%rax,8)
  401230:	48 8b 3b             	mov    (%rbx),%rdi
  401233:	e8 78 fd ff ff       	callq  400fb0 <usage>
  401238:	be a5 33 40 00       	mov    $0x4033a5,%esi
  40123d:	48 8b 3d 9c 32 20 00 	mov    0x20329c(%rip),%rdi        # 6044e0 <optarg@@GLIBC_2.2.5>
  401244:	e8 e7 fb ff ff       	callq  400e30 <fopen@plt>
  401249:	48 89 05 c0 32 20 00 	mov    %rax,0x2032c0(%rip)        # 604510 <infile>
  401250:	48 85 c0             	test   %rax,%rax
  401253:	0f 85 88 00 00 00    	jne    4012e1 <main+0x14e>
  401259:	48 8b 0d 80 32 20 00 	mov    0x203280(%rip),%rcx        # 6044e0 <optarg@@GLIBC_2.2.5>
  401260:	ba e2 30 40 00       	mov    $0x4030e2,%edx
  401265:	be 01 00 00 00       	mov    $0x1,%esi
  40126a:	48 8b 3d 77 32 20 00 	mov    0x203277(%rip),%rdi        # 6044e8 <stderr@@GLIBC_2.2.5>
  401271:	e8 1a fc ff ff       	callq  400e90 <__fprintf_chk@plt>
  401276:	b8 01 00 00 00       	mov    $0x1,%eax
  40127b:	e9 e4 00 00 00       	jmpq   401364 <main+0x1d1>
  401280:	ba 10 00 00 00       	mov    $0x10,%edx
  401285:	be 00 00 00 00       	mov    $0x0,%esi
  40128a:	48 8b 3d 4f 32 20 00 	mov    0x20324f(%rip),%rdi        # 6044e0 <optarg@@GLIBC_2.2.5>
  401291:	e8 ba fb ff ff       	callq  400e50 <strtoul@plt>
  401296:	41 89 c6             	mov    %eax,%r14d
  401299:	eb 46                	jmp    4012e1 <main+0x14e>
  40129b:	ba 0a 00 00 00       	mov    $0xa,%edx
  4012a0:	be 00 00 00 00       	mov    $0x0,%esi
  4012a5:	48 8b 3d 34 32 20 00 	mov    0x203234(%rip),%rdi        # 6044e0 <optarg@@GLIBC_2.2.5>
  4012ac:	e8 ff fa ff ff       	callq  400db0 <strtol@plt>
  4012b1:	41 89 c5             	mov    %eax,%r13d
  4012b4:	eb 2b                	jmp    4012e1 <main+0x14e>
  4012b6:	c7 05 e8 31 20 00 00 	movl   $0x0,0x2031e8(%rip)        # 6044a8 <notify>
  4012bd:	00 00 00 
  4012c0:	eb 1f                	jmp    4012e1 <main+0x14e>
  4012c2:	0f be d2             	movsbl %dl,%edx
  4012c5:	be ff 30 40 00       	mov    $0x4030ff,%esi
  4012ca:	bf 01 00 00 00       	mov    $0x1,%edi
  4012cf:	b8 00 00 00 00       	mov    $0x0,%eax
  4012d4:	e8 47 fb ff ff       	callq  400e20 <__printf_chk@plt>
  4012d9:	48 8b 3b             	mov    (%rbx),%rdi
  4012dc:	e8 cf fc ff ff       	callq  400fb0 <usage>
  4012e1:	48 89 ea             	mov    %rbp,%rdx
  4012e4:	48 89 de             	mov    %rbx,%rsi
  4012e7:	44 89 e7             	mov    %r12d,%edi
  4012ea:	e8 51 fb ff ff       	callq  400e40 <getopt@plt>
  4012ef:	89 c2                	mov    %eax,%edx
  4012f1:	3c ff                	cmp    $0xff,%al
  4012f3:	0f 85 22 ff ff ff    	jne    40121b <main+0x88>
  4012f9:	be 00 00 00 00       	mov    $0x0,%esi
  4012fe:	44 89 ef             	mov    %r13d,%edi
  401301:	e8 34 fd ff ff       	callq  40103a <initialize_target>
  401306:	83 3d 1b 32 20 00 00 	cmpl   $0x0,0x20321b(%rip)        # 604528 <is_checker>
  40130d:	74 2a                	je     401339 <main+0x1a6>
  40130f:	44 3b 35 0a 32 20 00 	cmp    0x20320a(%rip),%r14d        # 604520 <authkey>
  401316:	74 21                	je     401339 <main+0x1a6>
  401318:	44 89 f2             	mov    %r14d,%edx
  40131b:	be 38 30 40 00       	mov    $0x403038,%esi
  401320:	bf 01 00 00 00       	mov    $0x1,%edi
  401325:	b8 00 00 00 00       	mov    $0x0,%eax
  40132a:	e8 f1 fa ff ff       	callq  400e20 <__printf_chk@plt>
  40132f:	b8 00 00 00 00       	mov    $0x0,%eax
  401334:	e8 22 08 00 00       	callq  401b5b <check_fail>
  401339:	8b 15 e5 31 20 00    	mov    0x2031e5(%rip),%edx        # 604524 <cookie>
  40133f:	be 12 31 40 00       	mov    $0x403112,%esi
  401344:	bf 01 00 00 00       	mov    $0x1,%edi
  401349:	b8 00 00 00 00       	mov    $0x0,%eax
  40134e:	e8 cd fa ff ff       	callq  400e20 <__printf_chk@plt>
  401353:	48 8b 3d 46 31 20 00 	mov    0x203146(%rip),%rdi        # 6044a0 <buf_offset>
  40135a:	e8 5b 0d 00 00       	callq  4020ba <stable_launch>
  40135f:	b8 00 00 00 00       	mov    $0x0,%eax
  401364:	5b                   	pop    %rbx
  401365:	5d                   	pop    %rbp
  401366:	41 5c                	pop    %r12
  401368:	41 5d                	pop    %r13
  40136a:	41 5e                	pop    %r14
  40136c:	c3                   	retq   

000000000040136d <scramble>:
  40136d:	b8 00 00 00 00       	mov    $0x0,%eax
  401372:	eb 11                	jmp    401385 <scramble+0x18>
  401374:	69 c8 43 e2 00 00    	imul   $0xe243,%eax,%ecx
  40137a:	01 f9                	add    %edi,%ecx
  40137c:	89 c2                	mov    %eax,%edx
  40137e:	89 4c 94 c8          	mov    %ecx,-0x38(%rsp,%rdx,4)
  401382:	83 c0 01             	add    $0x1,%eax
  401385:	83 f8 09             	cmp    $0x9,%eax
  401388:	76 ea                	jbe    401374 <scramble+0x7>
  40138a:	8b 44 24 cc          	mov    -0x34(%rsp),%eax
  40138e:	69 c0 3b 07 00 00    	imul   $0x73b,%eax,%eax
  401394:	89 44 24 cc          	mov    %eax,-0x34(%rsp)
  401398:	8b 44 24 d4          	mov    -0x2c(%rsp),%eax
  40139c:	69 c0 6d 1a 00 00    	imul   $0x1a6d,%eax,%eax
  4013a2:	89 44 24 d4          	mov    %eax,-0x2c(%rsp)
  4013a6:	8b 44 24 e4          	mov    -0x1c(%rsp),%eax
  4013aa:	69 c0 7a 3b 00 00    	imul   $0x3b7a,%eax,%eax
  4013b0:	89 44 24 e4          	mov    %eax,-0x1c(%rsp)
  4013b4:	8b 44 24 d4          	mov    -0x2c(%rsp),%eax
  4013b8:	69 c0 50 17 00 00    	imul   $0x1750,%eax,%eax
  4013be:	89 44 24 d4          	mov    %eax,-0x2c(%rsp)
  4013c2:	8b 44 24 cc          	mov    -0x34(%rsp),%eax
  4013c6:	69 c0 73 86 00 00    	imul   $0x8673,%eax,%eax
  4013cc:	89 44 24 cc          	mov    %eax,-0x34(%rsp)
  4013d0:	8b 44 24 e0          	mov    -0x20(%rsp),%eax
  4013d4:	69 c0 e3 0f 00 00    	imul   $0xfe3,%eax,%eax
  4013da:	89 44 24 e0          	mov    %eax,-0x20(%rsp)
  4013de:	8b 44 24 c8          	mov    -0x38(%rsp),%eax
  4013e2:	69 c0 a9 d9 00 00    	imul   $0xd9a9,%eax,%eax
  4013e8:	89 44 24 c8          	mov    %eax,-0x38(%rsp)
  4013ec:	8b 44 24 e0          	mov    -0x20(%rsp),%eax
  4013f0:	69 c0 f2 a5 00 00    	imul   $0xa5f2,%eax,%eax
  4013f6:	89 44 24 e0          	mov    %eax,-0x20(%rsp)
  4013fa:	8b 44 24 e0          	mov    -0x20(%rsp),%eax
  4013fe:	69 c0 72 0c 00 00    	imul   $0xc72,%eax,%eax
  401404:	89 44 24 e0          	mov    %eax,-0x20(%rsp)
  401408:	8b 44 24 d4          	mov    -0x2c(%rsp),%eax
  40140c:	69 c0 78 97 00 00    	imul   $0x9778,%eax,%eax
  401412:	89 44 24 d4          	mov    %eax,-0x2c(%rsp)
  401416:	8b 44 24 d8          	mov    -0x28(%rsp),%eax
  40141a:	69 c0 7c a8 00 00    	imul   $0xa87c,%eax,%eax
  401420:	89 44 24 d8          	mov    %eax,-0x28(%rsp)
  401424:	8b 44 24 d8          	mov    -0x28(%rsp),%eax
  401428:	69 c0 cd 18 00 00    	imul   $0x18cd,%eax,%eax
  40142e:	89 44 24 d8          	mov    %eax,-0x28(%rsp)
  401432:	8b 44 24 d0          	mov    -0x30(%rsp),%eax
  401436:	69 c0 01 9e 00 00    	imul   $0x9e01,%eax,%eax
  40143c:	89 44 24 d0          	mov    %eax,-0x30(%rsp)
  401440:	8b 44 24 c8          	mov    -0x38(%rsp),%eax
  401444:	69 c0 c1 20 00 00    	imul   $0x20c1,%eax,%eax
  40144a:	89 44 24 c8          	mov    %eax,-0x38(%rsp)
  40144e:	8b 44 24 d8          	mov    -0x28(%rsp),%eax
  401452:	69 c0 4d 25 00 00    	imul   $0x254d,%eax,%eax
  401458:	89 44 24 d8          	mov    %eax,-0x28(%rsp)
  40145c:	8b 44 24 d0          	mov    -0x30(%rsp),%eax
  401460:	69 c0 b2 85 00 00    	imul   $0x85b2,%eax,%eax
  401466:	89 44 24 d0          	mov    %eax,-0x30(%rsp)
  40146a:	8b 44 24 dc          	mov    -0x24(%rsp),%eax
  40146e:	69 c0 66 9d 00 00    	imul   $0x9d66,%eax,%eax
  401474:	89 44 24 dc          	mov    %eax,-0x24(%rsp)
  401478:	8b 44 24 d8          	mov    -0x28(%rsp),%eax
  40147c:	69 c0 a3 bf 00 00    	imul   $0xbfa3,%eax,%eax
  401482:	89 44 24 d8          	mov    %eax,-0x28(%rsp)
  401486:	8b 44 24 e8          	mov    -0x18(%rsp),%eax
  40148a:	69 c0 b1 fb 00 00    	imul   $0xfbb1,%eax,%eax
  401490:	89 44 24 e8          	mov    %eax,-0x18(%rsp)
  401494:	8b 44 24 c8          	mov    -0x38(%rsp),%eax
  401498:	69 c0 19 63 00 00    	imul   $0x6319,%eax,%eax
  40149e:	89 44 24 c8          	mov    %eax,-0x38(%rsp)
  4014a2:	8b 44 24 c8          	mov    -0x38(%rsp),%eax
  4014a6:	69 c0 dd 72 00 00    	imul   $0x72dd,%eax,%eax
  4014ac:	89 44 24 c8          	mov    %eax,-0x38(%rsp)
  4014b0:	8b 44 24 e4          	mov    -0x1c(%rsp),%eax
  4014b4:	69 c0 0a 8c 00 00    	imul   $0x8c0a,%eax,%eax
  4014ba:	89 44 24 e4          	mov    %eax,-0x1c(%rsp)
  4014be:	8b 44 24 e4          	mov    -0x1c(%rsp),%eax
  4014c2:	69 c0 b4 14 00 00    	imul   $0x14b4,%eax,%eax
  4014c8:	89 44 24 e4          	mov    %eax,-0x1c(%rsp)
  4014cc:	8b 44 24 d0          	mov    -0x30(%rsp),%eax
  4014d0:	69 c0 09 16 00 00    	imul   $0x1609,%eax,%eax
  4014d6:	89 44 24 d0          	mov    %eax,-0x30(%rsp)
  4014da:	8b 44 24 cc          	mov    -0x34(%rsp),%eax
  4014de:	69 c0 5d 0b 00 00    	imul   $0xb5d,%eax,%eax
  4014e4:	89 44 24 cc          	mov    %eax,-0x34(%rsp)
  4014e8:	8b 44 24 cc          	mov    -0x34(%rsp),%eax
  4014ec:	69 c0 2a 4a 00 00    	imul   $0x4a2a,%eax,%eax
  4014f2:	89 44 24 cc          	mov    %eax,-0x34(%rsp)
  4014f6:	8b 44 24 dc          	mov    -0x24(%rsp),%eax
  4014fa:	69 c0 69 13 00 00    	imul   $0x1369,%eax,%eax
  401500:	89 44 24 dc          	mov    %eax,-0x24(%rsp)
  401504:	8b 44 24 e0          	mov    -0x20(%rsp),%eax
  401508:	69 c0 a5 46 00 00    	imul   $0x46a5,%eax,%eax
  40150e:	89 44 24 e0          	mov    %eax,-0x20(%rsp)
  401512:	8b 44 24 dc          	mov    -0x24(%rsp),%eax
  401516:	69 c0 68 2c 00 00    	imul   $0x2c68,%eax,%eax
  40151c:	89 44 24 dc          	mov    %eax,-0x24(%rsp)
  401520:	8b 44 24 d4          	mov    -0x2c(%rsp),%eax
  401524:	69 c0 d8 54 00 00    	imul   $0x54d8,%eax,%eax
  40152a:	89 44 24 d4          	mov    %eax,-0x2c(%rsp)
  40152e:	8b 44 24 e8          	mov    -0x18(%rsp),%eax
  401532:	69 c0 1d 68 00 00    	imul   $0x681d,%eax,%eax
  401538:	89 44 24 e8          	mov    %eax,-0x18(%rsp)
  40153c:	8b 44 24 e4          	mov    -0x1c(%rsp),%eax
  401540:	69 c0 3e 7e 00 00    	imul   $0x7e3e,%eax,%eax
  401546:	89 44 24 e4          	mov    %eax,-0x1c(%rsp)
  40154a:	8b 44 24 dc          	mov    -0x24(%rsp),%eax
  40154e:	69 c0 aa 7a 00 00    	imul   $0x7aaa,%eax,%eax
  401554:	89 44 24 dc          	mov    %eax,-0x24(%rsp)
  401558:	8b 44 24 cc          	mov    -0x34(%rsp),%eax
  40155c:	69 c0 63 de 00 00    	imul   $0xde63,%eax,%eax
  401562:	89 44 24 cc          	mov    %eax,-0x34(%rsp)
  401566:	8b 44 24 d4          	mov    -0x2c(%rsp),%eax
  40156a:	69 c0 d5 14 00 00    	imul   $0x14d5,%eax,%eax
  401570:	89 44 24 d4          	mov    %eax,-0x2c(%rsp)
  401574:	8b 44 24 e4          	mov    -0x1c(%rsp),%eax
  401578:	69 c0 7f f8 00 00    	imul   $0xf87f,%eax,%eax
  40157e:	89 44 24 e4          	mov    %eax,-0x1c(%rsp)
  401582:	8b 44 24 cc          	mov    -0x34(%rsp),%eax
  401586:	69 c0 79 b4 00 00    	imul   $0xb479,%eax,%eax
  40158c:	89 44 24 cc          	mov    %eax,-0x34(%rsp)
  401590:	8b 44 24 e0          	mov    -0x20(%rsp),%eax
  401594:	69 c0 3a d4 00 00    	imul   $0xd43a,%eax,%eax
  40159a:	89 44 24 e0          	mov    %eax,-0x20(%rsp)
  40159e:	8b 44 24 cc          	mov    -0x34(%rsp),%eax
  4015a2:	69 c0 86 b6 00 00    	imul   $0xb686,%eax,%eax
  4015a8:	89 44 24 cc          	mov    %eax,-0x34(%rsp)
  4015ac:	8b 44 24 d4          	mov    -0x2c(%rsp),%eax
  4015b0:	69 c0 54 ea 00 00    	imul   $0xea54,%eax,%eax
  4015b6:	89 44 24 d4          	mov    %eax,-0x2c(%rsp)
  4015ba:	8b 44 24 e0          	mov    -0x20(%rsp),%eax
  4015be:	69 c0 c4 97 00 00    	imul   $0x97c4,%eax,%eax
  4015c4:	89 44 24 e0          	mov    %eax,-0x20(%rsp)
  4015c8:	8b 44 24 ec          	mov    -0x14(%rsp),%eax
  4015cc:	69 c0 bc 75 00 00    	imul   $0x75bc,%eax,%eax
  4015d2:	89 44 24 ec          	mov    %eax,-0x14(%rsp)
  4015d6:	8b 44 24 e0          	mov    -0x20(%rsp),%eax
  4015da:	69 c0 76 97 00 00    	imul   $0x9776,%eax,%eax
  4015e0:	89 44 24 e0          	mov    %eax,-0x20(%rsp)
  4015e4:	8b 44 24 d8          	mov    -0x28(%rsp),%eax
  4015e8:	69 c0 97 5c 00 00    	imul   $0x5c97,%eax,%eax
  4015ee:	89 44 24 d8          	mov    %eax,-0x28(%rsp)
  4015f2:	8b 44 24 dc          	mov    -0x24(%rsp),%eax
  4015f6:	69 c0 c9 23 00 00    	imul   $0x23c9,%eax,%eax
  4015fc:	89 44 24 dc          	mov    %eax,-0x24(%rsp)
  401600:	8b 44 24 d0          	mov    -0x30(%rsp),%eax
  401604:	69 c0 93 15 00 00    	imul   $0x1593,%eax,%eax
  40160a:	89 44 24 d0          	mov    %eax,-0x30(%rsp)
  40160e:	8b 44 24 e4          	mov    -0x1c(%rsp),%eax
  401612:	69 c0 fa 8b 00 00    	imul   $0x8bfa,%eax,%eax
  401618:	89 44 24 e4          	mov    %eax,-0x1c(%rsp)
  40161c:	8b 44 24 d8          	mov    -0x28(%rsp),%eax
  401620:	69 c0 6a 91 00 00    	imul   $0x916a,%eax,%eax
  401626:	89 44 24 d8          	mov    %eax,-0x28(%rsp)
  40162a:	8b 44 24 d4          	mov    -0x2c(%rsp),%eax
  40162e:	69 c0 b3 d1 00 00    	imul   $0xd1b3,%eax,%eax
  401634:	89 44 24 d4          	mov    %eax,-0x2c(%rsp)
  401638:	8b 44 24 c8          	mov    -0x38(%rsp),%eax
  40163c:	69 c0 ff 7c 00 00    	imul   $0x7cff,%eax,%eax
  401642:	89 44 24 c8          	mov    %eax,-0x38(%rsp)
  401646:	8b 44 24 c8          	mov    -0x38(%rsp),%eax
  40164a:	69 c0 4a b1 00 00    	imul   $0xb14a,%eax,%eax
  401650:	89 44 24 c8          	mov    %eax,-0x38(%rsp)
  401654:	8b 44 24 d0          	mov    -0x30(%rsp),%eax
  401658:	69 c0 3b 6e 00 00    	imul   $0x6e3b,%eax,%eax
  40165e:	89 44 24 d0          	mov    %eax,-0x30(%rsp)
  401662:	8b 44 24 d4          	mov    -0x2c(%rsp),%eax
  401666:	69 c0 07 fa 00 00    	imul   $0xfa07,%eax,%eax
  40166c:	89 44 24 d4          	mov    %eax,-0x2c(%rsp)
  401670:	8b 44 24 d8          	mov    -0x28(%rsp),%eax
  401674:	69 c0 f2 2e 00 00    	imul   $0x2ef2,%eax,%eax
  40167a:	89 44 24 d8          	mov    %eax,-0x28(%rsp)
  40167e:	8b 44 24 e8          	mov    -0x18(%rsp),%eax
  401682:	69 c0 b8 2c 00 00    	imul   $0x2cb8,%eax,%eax
  401688:	89 44 24 e8          	mov    %eax,-0x18(%rsp)
  40168c:	8b 44 24 c8          	mov    -0x38(%rsp),%eax
  401690:	69 c0 71 72 00 00    	imul   $0x7271,%eax,%eax
  401696:	89 44 24 c8          	mov    %eax,-0x38(%rsp)
  40169a:	8b 44 24 e8          	mov    -0x18(%rsp),%eax
  40169e:	69 c0 c5 4d 00 00    	imul   $0x4dc5,%eax,%eax
  4016a4:	89 44 24 e8          	mov    %eax,-0x18(%rsp)
  4016a8:	8b 44 24 ec          	mov    -0x14(%rsp),%eax
  4016ac:	69 c0 a9 6f 00 00    	imul   $0x6fa9,%eax,%eax
  4016b2:	89 44 24 ec          	mov    %eax,-0x14(%rsp)
  4016b6:	8b 44 24 c8          	mov    -0x38(%rsp),%eax
  4016ba:	69 c0 90 a4 00 00    	imul   $0xa490,%eax,%eax
  4016c0:	89 44 24 c8          	mov    %eax,-0x38(%rsp)
  4016c4:	8b 44 24 dc          	mov    -0x24(%rsp),%eax
  4016c8:	69 c0 19 a9 00 00    	imul   $0xa919,%eax,%eax
  4016ce:	89 44 24 dc          	mov    %eax,-0x24(%rsp)
  4016d2:	8b 44 24 d0          	mov    -0x30(%rsp),%eax
  4016d6:	69 c0 b0 7d 00 00    	imul   $0x7db0,%eax,%eax
  4016dc:	89 44 24 d0          	mov    %eax,-0x30(%rsp)
  4016e0:	8b 44 24 d8          	mov    -0x28(%rsp),%eax
  4016e4:	69 c0 3f 54 00 00    	imul   $0x543f,%eax,%eax
  4016ea:	89 44 24 d8          	mov    %eax,-0x28(%rsp)
  4016ee:	8b 44 24 ec          	mov    -0x14(%rsp),%eax
  4016f2:	69 c0 7e 52 00 00    	imul   $0x527e,%eax,%eax
  4016f8:	89 44 24 ec          	mov    %eax,-0x14(%rsp)
  4016fc:	8b 44 24 dc          	mov    -0x24(%rsp),%eax
  401700:	69 c0 4e 10 00 00    	imul   $0x104e,%eax,%eax
  401706:	89 44 24 dc          	mov    %eax,-0x24(%rsp)
  40170a:	8b 44 24 e4          	mov    -0x1c(%rsp),%eax
  40170e:	69 c0 77 55 00 00    	imul   $0x5577,%eax,%eax
  401714:	89 44 24 e4          	mov    %eax,-0x1c(%rsp)
  401718:	8b 44 24 d4          	mov    -0x2c(%rsp),%eax
  40171c:	69 c0 b9 0a 00 00    	imul   $0xab9,%eax,%eax
  401722:	89 44 24 d4          	mov    %eax,-0x2c(%rsp)
  401726:	8b 44 24 dc          	mov    -0x24(%rsp),%eax
  40172a:	69 c0 cb 02 00 00    	imul   $0x2cb,%eax,%eax
  401730:	89 44 24 dc          	mov    %eax,-0x24(%rsp)
  401734:	8b 44 24 d8          	mov    -0x28(%rsp),%eax
  401738:	69 c0 85 6c 00 00    	imul   $0x6c85,%eax,%eax
  40173e:	89 44 24 d8          	mov    %eax,-0x28(%rsp)
  401742:	8b 44 24 dc          	mov    -0x24(%rsp),%eax
  401746:	69 c0 6a bb 00 00    	imul   $0xbb6a,%eax,%eax
  40174c:	89 44 24 dc          	mov    %eax,-0x24(%rsp)
  401750:	8b 44 24 ec          	mov    -0x14(%rsp),%eax
  401754:	69 c0 60 ad 00 00    	imul   $0xad60,%eax,%eax
  40175a:	89 44 24 ec          	mov    %eax,-0x14(%rsp)
  40175e:	8b 44 24 c8          	mov    -0x38(%rsp),%eax
  401762:	69 c0 be b4 00 00    	imul   $0xb4be,%eax,%eax
  401768:	89 44 24 c8          	mov    %eax,-0x38(%rsp)
  40176c:	8b 44 24 cc          	mov    -0x34(%rsp),%eax
  401770:	69 c0 9f ac 00 00    	imul   $0xac9f,%eax,%eax
  401776:	89 44 24 cc          	mov    %eax,-0x34(%rsp)
  40177a:	8b 44 24 d4          	mov    -0x2c(%rsp),%eax
  40177e:	c1 e0 0b             	shl    $0xb,%eax
  401781:	89 44 24 d4          	mov    %eax,-0x2c(%rsp)
  401785:	8b 44 24 e0          	mov    -0x20(%rsp),%eax
  401789:	69 c0 be e7 00 00    	imul   $0xe7be,%eax,%eax
  40178f:	89 44 24 e0          	mov    %eax,-0x20(%rsp)
  401793:	8b 44 24 e4          	mov    -0x1c(%rsp),%eax
  401797:	69 c0 89 e8 00 00    	imul   $0xe889,%eax,%eax
  40179d:	89 44 24 e4          	mov    %eax,-0x1c(%rsp)
  4017a1:	8b 44 24 cc          	mov    -0x34(%rsp),%eax
  4017a5:	69 c0 e9 74 00 00    	imul   $0x74e9,%eax,%eax
  4017ab:	89 44 24 cc          	mov    %eax,-0x34(%rsp)
  4017af:	8b 44 24 d0          	mov    -0x30(%rsp),%eax
  4017b3:	69 c0 83 4f 00 00    	imul   $0x4f83,%eax,%eax
  4017b9:	89 44 24 d0          	mov    %eax,-0x30(%rsp)
  4017bd:	8b 44 24 d4          	mov    -0x2c(%rsp),%eax
  4017c1:	69 c0 e3 6f 00 00    	imul   $0x6fe3,%eax,%eax
  4017c7:	89 44 24 d4          	mov    %eax,-0x2c(%rsp)
  4017cb:	8b 44 24 e4          	mov    -0x1c(%rsp),%eax
  4017cf:	69 c0 d2 ae 00 00    	imul   $0xaed2,%eax,%eax
  4017d5:	89 44 24 e4          	mov    %eax,-0x1c(%rsp)
  4017d9:	8b 44 24 ec          	mov    -0x14(%rsp),%eax
  4017dd:	69 c0 32 c6 00 00    	imul   $0xc632,%eax,%eax
  4017e3:	89 44 24 ec          	mov    %eax,-0x14(%rsp)
  4017e7:	8b 44 24 e0          	mov    -0x20(%rsp),%eax
  4017eb:	69 c0 7e 0d 00 00    	imul   $0xd7e,%eax,%eax
  4017f1:	89 44 24 e0          	mov    %eax,-0x20(%rsp)
  4017f5:	8b 44 24 dc          	mov    -0x24(%rsp),%eax
  4017f9:	69 c0 0a 0b 00 00    	imul   $0xb0a,%eax,%eax
  4017ff:	89 44 24 dc          	mov    %eax,-0x24(%rsp)
  401803:	8b 44 24 c8          	mov    -0x38(%rsp),%eax
  401807:	69 c0 e1 49 00 00    	imul   $0x49e1,%eax,%eax
  40180d:	89 44 24 c8          	mov    %eax,-0x38(%rsp)
  401811:	8b 44 24 d4          	mov    -0x2c(%rsp),%eax
  401815:	69 c0 1c 0d 00 00    	imul   $0xd1c,%eax,%eax
  40181b:	89 44 24 d4          	mov    %eax,-0x2c(%rsp)
  40181f:	8b 44 24 c8          	mov    -0x38(%rsp),%eax
  401823:	69 c0 07 13 00 00    	imul   $0x1307,%eax,%eax
  401829:	89 44 24 c8          	mov    %eax,-0x38(%rsp)
  40182d:	8b 44 24 cc          	mov    -0x34(%rsp),%eax
  401831:	69 c0 6e ed 00 00    	imul   $0xed6e,%eax,%eax
  401837:	89 44 24 cc          	mov    %eax,-0x34(%rsp)
  40183b:	8b 44 24 d8          	mov    -0x28(%rsp),%eax
  40183f:	69 c0 4e da 00 00    	imul   $0xda4e,%eax,%eax
  401845:	89 44 24 d8          	mov    %eax,-0x28(%rsp)
  401849:	8b 44 24 d0          	mov    -0x30(%rsp),%eax
  40184d:	69 c0 48 ca 00 00    	imul   $0xca48,%eax,%eax
  401853:	89 44 24 d0          	mov    %eax,-0x30(%rsp)
  401857:	8b 44 24 e0          	mov    -0x20(%rsp),%eax
  40185b:	69 c0 57 b6 00 00    	imul   $0xb657,%eax,%eax
  401861:	89 44 24 e0          	mov    %eax,-0x20(%rsp)
  401865:	8b 44 24 d8          	mov    -0x28(%rsp),%eax
  401869:	69 c0 de 8e 00 00    	imul   $0x8ede,%eax,%eax
  40186f:	89 44 24 d8          	mov    %eax,-0x28(%rsp)
  401873:	8b 44 24 cc          	mov    -0x34(%rsp),%eax
  401877:	69 c0 dd 42 00 00    	imul   $0x42dd,%eax,%eax
  40187d:	89 44 24 cc          	mov    %eax,-0x34(%rsp)
  401881:	8b 44 24 e4          	mov    -0x1c(%rsp),%eax
  401885:	69 c0 1a 05 00 00    	imul   $0x51a,%eax,%eax
  40188b:	89 44 24 e4          	mov    %eax,-0x1c(%rsp)
  40188f:	8b 44 24 dc          	mov    -0x24(%rsp),%eax
  401893:	69 c0 f0 cc 00 00    	imul   $0xccf0,%eax,%eax
  401899:	89 44 24 dc          	mov    %eax,-0x24(%rsp)
  40189d:	8b 44 24 e8          	mov    -0x18(%rsp),%eax
  4018a1:	69 c0 62 34 00 00    	imul   $0x3462,%eax,%eax
  4018a7:	89 44 24 e8          	mov    %eax,-0x18(%rsp)
  4018ab:	8b 44 24 d4          	mov    -0x2c(%rsp),%eax
  4018af:	69 c0 2f f5 00 00    	imul   $0xf52f,%eax,%eax
  4018b5:	89 44 24 d4          	mov    %eax,-0x2c(%rsp)
  4018b9:	8b 44 24 ec          	mov    -0x14(%rsp),%eax
  4018bd:	69 c0 0b 80 00 00    	imul   $0x800b,%eax,%eax
  4018c3:	89 44 24 ec          	mov    %eax,-0x14(%rsp)
  4018c7:	8b 44 24 cc          	mov    -0x34(%rsp),%eax
  4018cb:	69 c0 81 cb 00 00    	imul   $0xcb81,%eax,%eax
  4018d1:	89 44 24 cc          	mov    %eax,-0x34(%rsp)
  4018d5:	8b 44 24 d8          	mov    -0x28(%rsp),%eax
  4018d9:	69 c0 f7 12 00 00    	imul   $0x12f7,%eax,%eax
  4018df:	89 44 24 d8          	mov    %eax,-0x28(%rsp)
  4018e3:	ba 00 00 00 00       	mov    $0x0,%edx
  4018e8:	b8 00 00 00 00       	mov    $0x0,%eax
  4018ed:	eb 0b                	jmp    4018fa <scramble+0x58d>
  4018ef:	89 d1                	mov    %edx,%ecx
  4018f1:	8b 4c 8c c8          	mov    -0x38(%rsp,%rcx,4),%ecx
  4018f5:	01 c8                	add    %ecx,%eax
  4018f7:	83 c2 01             	add    $0x1,%edx
  4018fa:	83 fa 09             	cmp    $0x9,%edx
  4018fd:	76 f0                	jbe    4018ef <scramble+0x582>
  4018ff:	f3 c3                	repz retq 

0000000000401901 <getbuf>:
  401901:	48 83 ec 18          	sub    $0x18,%rsp
  401905:	48 89 e7             	mov    %rsp,%rdi
  401908:	e8 83 02 00 00       	callq  401b90 <Gets>
  40190d:	b8 01 00 00 00       	mov    $0x1,%eax
  401912:	48 83 c4 18          	add    $0x18,%rsp
  401916:	c3                   	retq   

0000000000401917 <touch1>:
  401917:	48 83 ec 08          	sub    $0x8,%rsp
  40191b:	c7 05 f7 2b 20 00 01 	movl   $0x1,0x202bf7(%rip)        # 60451c <vlevel>
  401922:	00 00 00 
  401925:	bf fc 31 40 00       	mov    $0x4031fc,%edi
  40192a:	e8 b1 f3 ff ff       	callq  400ce0 <puts@plt>
  40192f:	bf 01 00 00 00       	mov    $0x1,%edi
  401934:	e8 ad 04 00 00       	callq  401de6 <validate>
  401939:	bf 00 00 00 00       	mov    $0x0,%edi
  40193e:	e8 2d f5 ff ff       	callq  400e70 <exit@plt>

0000000000401943 <touch2>:
  401943:	48 83 ec 08          	sub    $0x8,%rsp
  401947:	89 fa                	mov    %edi,%edx
  401949:	c7 05 c9 2b 20 00 02 	movl   $0x2,0x202bc9(%rip)        # 60451c <vlevel>
  401950:	00 00 00 
  401953:	3b 3d cb 2b 20 00    	cmp    0x202bcb(%rip),%edi        # 604524 <cookie>
  401959:	75 20                	jne    40197b <touch2+0x38>
  40195b:	be 20 32 40 00       	mov    $0x403220,%esi
  401960:	bf 01 00 00 00       	mov    $0x1,%edi
  401965:	b8 00 00 00 00       	mov    $0x0,%eax
  40196a:	e8 b1 f4 ff ff       	callq  400e20 <__printf_chk@plt>
  40196f:	bf 02 00 00 00       	mov    $0x2,%edi
  401974:	e8 6d 04 00 00       	callq  401de6 <validate>
  401979:	eb 1e                	jmp    401999 <touch2+0x56>
  40197b:	be 48 32 40 00       	mov    $0x403248,%esi
  401980:	bf 01 00 00 00       	mov    $0x1,%edi
  401985:	b8 00 00 00 00       	mov    $0x0,%eax
  40198a:	e8 91 f4 ff ff       	callq  400e20 <__printf_chk@plt>
  40198f:	bf 02 00 00 00       	mov    $0x2,%edi
  401994:	e8 0f 05 00 00       	callq  401ea8 <fail>
  401999:	bf 00 00 00 00       	mov    $0x0,%edi
  40199e:	e8 cd f4 ff ff       	callq  400e70 <exit@plt>

00000000004019a3 <hexmatch>:
  4019a3:	41 54                	push   %r12
  4019a5:	55                   	push   %rbp
  4019a6:	53                   	push   %rbx
  4019a7:	48 83 c4 80          	add    $0xffffffffffffff80,%rsp
  4019ab:	41 89 fc             	mov    %edi,%r12d
  4019ae:	48 89 f5             	mov    %rsi,%rbp
  4019b1:	64 48 8b 04 25 28 00 	mov    %fs:0x28,%rax
  4019b8:	00 00 
  4019ba:	48 89 44 24 78       	mov    %rax,0x78(%rsp)
  4019bf:	31 c0                	xor    %eax,%eax
  4019c1:	e8 1a f4 ff ff       	callq  400de0 <random@plt>
  4019c6:	48 89 c1             	mov    %rax,%rcx
  4019c9:	48 ba 0b d7 a3 70 3d 	movabs $0xa3d70a3d70a3d70b,%rdx
  4019d0:	0a d7 a3 
  4019d3:	48 f7 ea             	imul   %rdx
  4019d6:	48 01 ca             	add    %rcx,%rdx
  4019d9:	48 c1 fa 06          	sar    $0x6,%rdx
  4019dd:	48 89 c8             	mov    %rcx,%rax
  4019e0:	48 c1 f8 3f          	sar    $0x3f,%rax
  4019e4:	48 29 c2             	sub    %rax,%rdx
  4019e7:	48 8d 04 92          	lea    (%rdx,%rdx,4),%rax
  4019eb:	48 8d 04 80          	lea    (%rax,%rax,4),%rax
  4019ef:	48 c1 e0 02          	shl    $0x2,%rax
  4019f3:	48 29 c1             	sub    %rax,%rcx
  4019f6:	48 8d 1c 0c          	lea    (%rsp,%rcx,1),%rbx
  4019fa:	45 89 e0             	mov    %r12d,%r8d
  4019fd:	b9 19 32 40 00       	mov    $0x403219,%ecx
  401a02:	48 c7 c2 ff ff ff ff 	mov    $0xffffffffffffffff,%rdx
  401a09:	be 01 00 00 00       	mov    $0x1,%esi
  401a0e:	48 89 df             	mov    %rbx,%rdi
  401a11:	b8 00 00 00 00       	mov    $0x0,%eax
  401a16:	e8 85 f4 ff ff       	callq  400ea0 <__sprintf_chk@plt>
  401a1b:	ba 09 00 00 00       	mov    $0x9,%edx
  401a20:	48 89 de             	mov    %rbx,%rsi
  401a23:	48 89 ef             	mov    %rbp,%rdi
  401a26:	e8 95 f2 ff ff       	callq  400cc0 <strncmp@plt>
  401a2b:	85 c0                	test   %eax,%eax
  401a2d:	0f 94 c0             	sete   %al
  401a30:	0f b6 c0             	movzbl %al,%eax
  401a33:	48 8b 74 24 78       	mov    0x78(%rsp),%rsi
  401a38:	64 48 33 34 25 28 00 	xor    %fs:0x28,%rsi
  401a3f:	00 00 
  401a41:	74 05                	je     401a48 <hexmatch+0xa5>
  401a43:	e8 b8 f2 ff ff       	callq  400d00 <__stack_chk_fail@plt>
  401a48:	48 83 ec 80          	sub    $0xffffffffffffff80,%rsp
  401a4c:	5b                   	pop    %rbx
  401a4d:	5d                   	pop    %rbp
  401a4e:	41 5c                	pop    %r12
  401a50:	c3                   	retq   

0000000000401a51 <touch3>:
  401a51:	53                   	push   %rbx
  401a52:	48 89 fb             	mov    %rdi,%rbx
  401a55:	c7 05 bd 2a 20 00 03 	movl   $0x3,0x202abd(%rip)        # 60451c <vlevel>
  401a5c:	00 00 00 
  401a5f:	48 89 fe             	mov    %rdi,%rsi
  401a62:	8b 3d bc 2a 20 00    	mov    0x202abc(%rip),%edi        # 604524 <cookie>
  401a68:	e8 36 ff ff ff       	callq  4019a3 <hexmatch>
  401a6d:	85 c0                	test   %eax,%eax
  401a6f:	74 23                	je     401a94 <touch3+0x43>
  401a71:	48 89 da             	mov    %rbx,%rdx
  401a74:	be 70 32 40 00       	mov    $0x403270,%esi
  401a79:	bf 01 00 00 00       	mov    $0x1,%edi
  401a7e:	b8 00 00 00 00       	mov    $0x0,%eax
  401a83:	e8 98 f3 ff ff       	callq  400e20 <__printf_chk@plt>
  401a88:	bf 03 00 00 00       	mov    $0x3,%edi
  401a8d:	e8 54 03 00 00       	callq  401de6 <validate>
  401a92:	eb 21                	jmp    401ab5 <touch3+0x64>
  401a94:	48 89 da             	mov    %rbx,%rdx
  401a97:	be 98 32 40 00       	mov    $0x403298,%esi
  401a9c:	bf 01 00 00 00       	mov    $0x1,%edi
  401aa1:	b8 00 00 00 00       	mov    $0x0,%eax
  401aa6:	e8 75 f3 ff ff       	callq  400e20 <__printf_chk@plt>
  401aab:	bf 03 00 00 00       	mov    $0x3,%edi
  401ab0:	e8 f3 03 00 00       	callq  401ea8 <fail>
  401ab5:	bf 00 00 00 00       	mov    $0x0,%edi
  401aba:	e8 b1 f3 ff ff       	callq  400e70 <exit@plt>

0000000000401abf <test>:
  401abf:	48 83 ec 08          	sub    $0x8,%rsp
  401ac3:	b8 00 00 00 00       	mov    $0x0,%eax
  401ac8:	e8 34 fe ff ff       	callq  401901 <getbuf>
  401acd:	89 c2                	mov    %eax,%edx
  401acf:	be c0 32 40 00       	mov    $0x4032c0,%esi
  401ad4:	bf 01 00 00 00       	mov    $0x1,%edi
  401ad9:	b8 00 00 00 00       	mov    $0x0,%eax
  401ade:	e8 3d f3 ff ff       	callq  400e20 <__printf_chk@plt>
  401ae3:	48 83 c4 08          	add    $0x8,%rsp
  401ae7:	c3                   	retq   
  401ae8:	0f 1f 84 00 00 00 00 	nopl   0x0(%rax,%rax,1)
  401aef:	00 

0000000000401af0 <save_char>:
  401af0:	8b 05 4e 36 20 00    	mov    0x20364e(%rip),%eax        # 605144 <gets_cnt>
  401af6:	3d ff 03 00 00       	cmp    $0x3ff,%eax
  401afb:	7f 49                	jg     401b46 <save_char+0x56>
  401afd:	8d 14 40             	lea    (%rax,%rax,2),%edx
  401b00:	89 f9                	mov    %edi,%ecx
  401b02:	c0 e9 04             	shr    $0x4,%cl
  401b05:	83 e1 0f             	and    $0xf,%ecx
  401b08:	0f b6 b1 e0 35 40 00 	movzbl 0x4035e0(%rcx),%esi
  401b0f:	48 63 ca             	movslq %edx,%rcx
  401b12:	40 88 b1 40 45 60 00 	mov    %sil,0x604540(%rcx)
  401b19:	8d 4a 01             	lea    0x1(%rdx),%ecx
  401b1c:	83 e7 0f             	and    $0xf,%edi
  401b1f:	0f b6 b7 e0 35 40 00 	movzbl 0x4035e0(%rdi),%esi
  401b26:	48 63 c9             	movslq %ecx,%rcx
  401b29:	40 88 b1 40 45 60 00 	mov    %sil,0x604540(%rcx)
  401b30:	83 c2 02             	add    $0x2,%edx
  401b33:	48 63 d2             	movslq %edx,%rdx
  401b36:	c6 82 40 45 60 00 20 	movb   $0x20,0x604540(%rdx)
  401b3d:	83 c0 01             	add    $0x1,%eax
  401b40:	89 05 fe 35 20 00    	mov    %eax,0x2035fe(%rip)        # 605144 <gets_cnt>
  401b46:	f3 c3                	repz retq 

0000000000401b48 <save_term>:
  401b48:	8b 05 f6 35 20 00    	mov    0x2035f6(%rip),%eax        # 605144 <gets_cnt>
  401b4e:	8d 04 40             	lea    (%rax,%rax,2),%eax
  401b51:	48 98                	cltq   
  401b53:	c6 80 40 45 60 00 00 	movb   $0x0,0x604540(%rax)
  401b5a:	c3                   	retq   

0000000000401b5b <check_fail>:
  401b5b:	48 83 ec 08          	sub    $0x8,%rsp
  401b5f:	0f be 15 e2 35 20 00 	movsbl 0x2035e2(%rip),%edx        # 605148 <target_prefix>
  401b66:	41 b8 40 45 60 00    	mov    $0x604540,%r8d
  401b6c:	8b 0d a6 29 20 00    	mov    0x2029a6(%rip),%ecx        # 604518 <check_level>
  401b72:	be e3 32 40 00       	mov    $0x4032e3,%esi
  401b77:	bf 01 00 00 00       	mov    $0x1,%edi
  401b7c:	b8 00 00 00 00       	mov    $0x0,%eax
  401b81:	e8 9a f2 ff ff       	callq  400e20 <__printf_chk@plt>
  401b86:	bf 01 00 00 00       	mov    $0x1,%edi
  401b8b:	e8 e0 f2 ff ff       	callq  400e70 <exit@plt>

0000000000401b90 <Gets>:
  401b90:	41 54                	push   %r12
  401b92:	55                   	push   %rbp
  401b93:	53                   	push   %rbx
  401b94:	49 89 fc             	mov    %rdi,%r12
  401b97:	c7 05 a3 35 20 00 00 	movl   $0x0,0x2035a3(%rip)        # 605144 <gets_cnt>
  401b9e:	00 00 00 
  401ba1:	48 89 fb             	mov    %rdi,%rbx
  401ba4:	eb 11                	jmp    401bb7 <Gets+0x27>
  401ba6:	48 8d 6b 01          	lea    0x1(%rbx),%rbp
  401baa:	88 03                	mov    %al,(%rbx)
  401bac:	0f b6 f8             	movzbl %al,%edi
  401baf:	e8 3c ff ff ff       	callq  401af0 <save_char>
  401bb4:	48 89 eb             	mov    %rbp,%rbx
  401bb7:	48 8b 3d 52 29 20 00 	mov    0x202952(%rip),%rdi        # 604510 <infile>
  401bbe:	e8 2d f2 ff ff       	callq  400df0 <_IO_getc@plt>
  401bc3:	83 f8 ff             	cmp    $0xffffffff,%eax
  401bc6:	74 05                	je     401bcd <Gets+0x3d>
  401bc8:	83 f8 0a             	cmp    $0xa,%eax
  401bcb:	75 d9                	jne    401ba6 <Gets+0x16>
  401bcd:	c6 03 00             	movb   $0x0,(%rbx)
  401bd0:	b8 00 00 00 00       	mov    $0x0,%eax
  401bd5:	e8 6e ff ff ff       	callq  401b48 <save_term>
  401bda:	4c 89 e0             	mov    %r12,%rax
  401bdd:	5b                   	pop    %rbx
  401bde:	5d                   	pop    %rbp
  401bdf:	41 5c                	pop    %r12
  401be1:	c3                   	retq   

0000000000401be2 <notify_server>:
  401be2:	53                   	push   %rbx
  401be3:	48 81 ec 30 40 00 00 	sub    $0x4030,%rsp
  401bea:	64 48 8b 04 25 28 00 	mov    %fs:0x28,%rax
  401bf1:	00 00 
  401bf3:	48 89 84 24 28 40 00 	mov    %rax,0x4028(%rsp)
  401bfa:	00 
  401bfb:	31 c0                	xor    %eax,%eax
  401bfd:	83 3d 24 29 20 00 00 	cmpl   $0x0,0x202924(%rip)        # 604528 <is_checker>
  401c04:	0f 85 bb 01 00 00    	jne    401dc5 <notify_server+0x1e3>
  401c0a:	89 fb                	mov    %edi,%ebx
  401c0c:	8b 05 32 35 20 00    	mov    0x203532(%rip),%eax        # 605144 <gets_cnt>
  401c12:	83 c0 64             	add    $0x64,%eax
  401c15:	3d 00 20 00 00       	cmp    $0x2000,%eax
  401c1a:	7e 1e                	jle    401c3a <notify_server+0x58>
  401c1c:	be 18 34 40 00       	mov    $0x403418,%esi
  401c21:	bf 01 00 00 00       	mov    $0x1,%edi
  401c26:	b8 00 00 00 00       	mov    $0x0,%eax
  401c2b:	e8 f0 f1 ff ff       	callq  400e20 <__printf_chk@plt>
  401c30:	bf 01 00 00 00       	mov    $0x1,%edi
  401c35:	e8 36 f2 ff ff       	callq  400e70 <exit@plt>
  401c3a:	0f be 05 07 35 20 00 	movsbl 0x203507(%rip),%eax        # 605148 <target_prefix>
  401c41:	83 3d 60 28 20 00 00 	cmpl   $0x0,0x202860(%rip)        # 6044a8 <notify>
  401c48:	74 08                	je     401c52 <notify_server+0x70>
  401c4a:	8b 15 d0 28 20 00    	mov    0x2028d0(%rip),%edx        # 604520 <authkey>
  401c50:	eb 05                	jmp    401c57 <notify_server+0x75>
  401c52:	ba ff ff ff ff       	mov    $0xffffffff,%edx
  401c57:	85 db                	test   %ebx,%ebx
  401c59:	74 08                	je     401c63 <notify_server+0x81>
  401c5b:	41 b9 f9 32 40 00    	mov    $0x4032f9,%r9d
  401c61:	eb 06                	jmp    401c69 <notify_server+0x87>
  401c63:	41 b9 fe 32 40 00    	mov    $0x4032fe,%r9d
  401c69:	48 c7 44 24 18 40 45 	movq   $0x604540,0x18(%rsp)
  401c70:	60 00 
  401c72:	89 74 24 10          	mov    %esi,0x10(%rsp)
  401c76:	89 44 24 08          	mov    %eax,0x8(%rsp)
  401c7a:	89 14 24             	mov    %edx,(%rsp)
  401c7d:	44 8b 05 e4 24 20 00 	mov    0x2024e4(%rip),%r8d        # 604168 <target_id>
  401c84:	b9 03 33 40 00       	mov    $0x403303,%ecx
  401c89:	ba 00 20 00 00       	mov    $0x2000,%edx
  401c8e:	be 01 00 00 00       	mov    $0x1,%esi
  401c93:	48 8d 7c 24 20       	lea    0x20(%rsp),%rdi
  401c98:	b8 00 00 00 00       	mov    $0x0,%eax
  401c9d:	e8 fe f1 ff ff       	callq  400ea0 <__sprintf_chk@plt>
  401ca2:	83 3d ff 27 20 00 00 	cmpl   $0x0,0x2027ff(%rip)        # 6044a8 <notify>
  401ca9:	0f 84 86 00 00 00    	je     401d35 <notify_server+0x153>
  401caf:	85 db                	test   %ebx,%ebx
  401cb1:	74 70                	je     401d23 <notify_server+0x141>
  401cb3:	4c 8d 8c 24 20 20 00 	lea    0x2020(%rsp),%r9
  401cba:	00 
  401cbb:	41 b8 00 00 00 00    	mov    $0x0,%r8d
  401cc1:	48 8d 4c 24 20       	lea    0x20(%rsp),%rcx
  401cc6:	48 8b 15 a3 24 20 00 	mov    0x2024a3(%rip),%rdx        # 604170 <lab>
  401ccd:	48 8b 35 a4 24 20 00 	mov    0x2024a4(%rip),%rsi        # 604178 <course>
  401cd4:	48 8b 3d 85 24 20 00 	mov    0x202485(%rip),%rdi        # 604160 <user_id>
  401cdb:	e8 be 10 00 00       	callq  402d9e <driver_post>
  401ce0:	85 c0                	test   %eax,%eax
  401ce2:	79 26                	jns    401d0a <notify_server+0x128>
  401ce4:	48 8d 94 24 20 20 00 	lea    0x2020(%rsp),%rdx
  401ceb:	00 
  401cec:	be 1f 33 40 00       	mov    $0x40331f,%esi
  401cf1:	bf 01 00 00 00       	mov    $0x1,%edi
  401cf6:	b8 00 00 00 00       	mov    $0x0,%eax
  401cfb:	e8 20 f1 ff ff       	callq  400e20 <__printf_chk@plt>
  401d00:	bf 01 00 00 00       	mov    $0x1,%edi
  401d05:	e8 66 f1 ff ff       	callq  400e70 <exit@plt>
  401d0a:	bf 48 34 40 00       	mov    $0x403448,%edi
  401d0f:	e8 cc ef ff ff       	callq  400ce0 <puts@plt>
  401d14:	bf 2b 33 40 00       	mov    $0x40332b,%edi
  401d19:	e8 c2 ef ff ff       	callq  400ce0 <puts@plt>
  401d1e:	e9 a2 00 00 00       	jmpq   401dc5 <notify_server+0x1e3>
  401d23:	bf 35 33 40 00       	mov    $0x403335,%edi
  401d28:	e8 b3 ef ff ff       	callq  400ce0 <puts@plt>
  401d2d:	0f 1f 00             	nopl   (%rax)
  401d30:	e9 90 00 00 00       	jmpq   401dc5 <notify_server+0x1e3>
  401d35:	85 db                	test   %ebx,%ebx
  401d37:	74 09                	je     401d42 <notify_server+0x160>
  401d39:	ba f9 32 40 00       	mov    $0x4032f9,%edx
  401d3e:	66 90                	xchg   %ax,%ax
  401d40:	eb 05                	jmp    401d47 <notify_server+0x165>
  401d42:	ba fe 32 40 00       	mov    $0x4032fe,%edx
  401d47:	be 80 34 40 00       	mov    $0x403480,%esi
  401d4c:	bf 01 00 00 00       	mov    $0x1,%edi
  401d51:	b8 00 00 00 00       	mov    $0x0,%eax
  401d56:	e8 c5 f0 ff ff       	callq  400e20 <__printf_chk@plt>
  401d5b:	48 8b 15 fe 23 20 00 	mov    0x2023fe(%rip),%rdx        # 604160 <user_id>
  401d62:	be 3c 33 40 00       	mov    $0x40333c,%esi
  401d67:	bf 01 00 00 00       	mov    $0x1,%edi
  401d6c:	b8 00 00 00 00       	mov    $0x0,%eax
  401d71:	e8 aa f0 ff ff       	callq  400e20 <__printf_chk@plt>
  401d76:	48 8b 15 fb 23 20 00 	mov    0x2023fb(%rip),%rdx        # 604178 <course>
  401d7d:	be 49 33 40 00       	mov    $0x403349,%esi
  401d82:	bf 01 00 00 00       	mov    $0x1,%edi
  401d87:	b8 00 00 00 00       	mov    $0x0,%eax
  401d8c:	e8 8f f0 ff ff       	callq  400e20 <__printf_chk@plt>
  401d91:	48 8b 15 d8 23 20 00 	mov    0x2023d8(%rip),%rdx        # 604170 <lab>
  401d98:	be 55 33 40 00       	mov    $0x403355,%esi
  401d9d:	bf 01 00 00 00       	mov    $0x1,%edi
  401da2:	b8 00 00 00 00       	mov    $0x0,%eax
  401da7:	e8 74 f0 ff ff       	callq  400e20 <__printf_chk@plt>
  401dac:	48 8d 54 24 20       	lea    0x20(%rsp),%rdx
  401db1:	be 5e 33 40 00       	mov    $0x40335e,%esi
  401db6:	bf 01 00 00 00       	mov    $0x1,%edi
  401dbb:	b8 00 00 00 00       	mov    $0x0,%eax
  401dc0:	e8 5b f0 ff ff       	callq  400e20 <__printf_chk@plt>
  401dc5:	48 8b 84 24 28 40 00 	mov    0x4028(%rsp),%rax
  401dcc:	00 
  401dcd:	64 48 33 04 25 28 00 	xor    %fs:0x28,%rax
  401dd4:	00 00 
  401dd6:	74 05                	je     401ddd <notify_server+0x1fb>
  401dd8:	e8 23 ef ff ff       	callq  400d00 <__stack_chk_fail@plt>
  401ddd:	48 81 c4 30 40 00 00 	add    $0x4030,%rsp
  401de4:	5b                   	pop    %rbx
  401de5:	c3                   	retq   

0000000000401de6 <validate>:
  401de6:	53                   	push   %rbx
  401de7:	89 fb                	mov    %edi,%ebx
  401de9:	83 3d 38 27 20 00 00 	cmpl   $0x0,0x202738(%rip)        # 604528 <is_checker>
  401df0:	74 6b                	je     401e5d <validate+0x77>
  401df2:	39 3d 24 27 20 00    	cmp    %edi,0x202724(%rip)        # 60451c <vlevel>
  401df8:	74 14                	je     401e0e <validate+0x28>
  401dfa:	bf 6a 33 40 00       	mov    $0x40336a,%edi
  401dff:	e8 dc ee ff ff       	callq  400ce0 <puts@plt>
  401e04:	b8 00 00 00 00       	mov    $0x0,%eax
  401e09:	e8 4d fd ff ff       	callq  401b5b <check_fail>
  401e0e:	8b 15 04 27 20 00    	mov    0x202704(%rip),%edx        # 604518 <check_level>
  401e14:	39 fa                	cmp    %edi,%edx
  401e16:	74 20                	je     401e38 <validate+0x52>
  401e18:	89 f9                	mov    %edi,%ecx
  401e1a:	be a8 34 40 00       	mov    $0x4034a8,%esi
  401e1f:	bf 01 00 00 00       	mov    $0x1,%edi
  401e24:	b8 00 00 00 00       	mov    $0x0,%eax
  401e29:	e8 f2 ef ff ff       	callq  400e20 <__printf_chk@plt>
  401e2e:	b8 00 00 00 00       	mov    $0x0,%eax
  401e33:	e8 23 fd ff ff       	callq  401b5b <check_fail>
  401e38:	0f be 15 09 33 20 00 	movsbl 0x203309(%rip),%edx        # 605148 <target_prefix>
  401e3f:	41 b8 40 45 60 00    	mov    $0x604540,%r8d
  401e45:	89 f9                	mov    %edi,%ecx
  401e47:	be 88 33 40 00       	mov    $0x403388,%esi
  401e4c:	bf 01 00 00 00       	mov    $0x1,%edi
  401e51:	b8 00 00 00 00       	mov    $0x0,%eax
  401e56:	e8 c5 ef ff ff       	callq  400e20 <__printf_chk@plt>
  401e5b:	eb 49                	jmp    401ea6 <validate+0xc0>
  401e5d:	39 3d b9 26 20 00    	cmp    %edi,0x2026b9(%rip)        # 60451c <vlevel>
  401e63:	74 18                	je     401e7d <validate+0x97>
  401e65:	bf 6a 33 40 00       	mov    $0x40336a,%edi
  401e6a:	e8 71 ee ff ff       	callq  400ce0 <puts@plt>
  401e6f:	89 de                	mov    %ebx,%esi
  401e71:	bf 00 00 00 00       	mov    $0x0,%edi
  401e76:	e8 67 fd ff ff       	callq  401be2 <notify_server>
  401e7b:	eb 29                	jmp    401ea6 <validate+0xc0>
  401e7d:	0f be 0d c4 32 20 00 	movsbl 0x2032c4(%rip),%ecx        # 605148 <target_prefix>
  401e84:	89 fa                	mov    %edi,%edx
  401e86:	be d0 34 40 00       	mov    $0x4034d0,%esi
  401e8b:	bf 01 00 00 00       	mov    $0x1,%edi
  401e90:	b8 00 00 00 00       	mov    $0x0,%eax
  401e95:	e8 86 ef ff ff       	callq  400e20 <__printf_chk@plt>
  401e9a:	89 de                	mov    %ebx,%esi
  401e9c:	bf 01 00 00 00       	mov    $0x1,%edi
  401ea1:	e8 3c fd ff ff       	callq  401be2 <notify_server>
  401ea6:	5b                   	pop    %rbx
  401ea7:	c3                   	retq   

0000000000401ea8 <fail>:
  401ea8:	48 83 ec 08          	sub    $0x8,%rsp
  401eac:	83 3d 75 26 20 00 00 	cmpl   $0x0,0x202675(%rip)        # 604528 <is_checker>
  401eb3:	74 0a                	je     401ebf <fail+0x17>
  401eb5:	b8 00 00 00 00       	mov    $0x0,%eax
  401eba:	e8 9c fc ff ff       	callq  401b5b <check_fail>
  401ebf:	89 fe                	mov    %edi,%esi
  401ec1:	bf 00 00 00 00       	mov    $0x0,%edi
  401ec6:	e8 17 fd ff ff       	callq  401be2 <notify_server>
  401ecb:	48 83 c4 08          	add    $0x8,%rsp
  401ecf:	c3                   	retq   

0000000000401ed0 <bushandler>:
  401ed0:	48 83 ec 08          	sub    $0x8,%rsp
  401ed4:	83 3d 4d 26 20 00 00 	cmpl   $0x0,0x20264d(%rip)        # 604528 <is_checker>
  401edb:	74 14                	je     401ef1 <bushandler+0x21>
  401edd:	bf 9d 33 40 00       	mov    $0x40339d,%edi
  401ee2:	e8 f9 ed ff ff       	callq  400ce0 <puts@plt>
  401ee7:	b8 00 00 00 00       	mov    $0x0,%eax
  401eec:	e8 6a fc ff ff       	callq  401b5b <check_fail>
  401ef1:	bf 08 35 40 00       	mov    $0x403508,%edi
  401ef6:	e8 e5 ed ff ff       	callq  400ce0 <puts@plt>
  401efb:	bf a7 33 40 00       	mov    $0x4033a7,%edi
  401f00:	e8 db ed ff ff       	callq  400ce0 <puts@plt>
  401f05:	be 00 00 00 00       	mov    $0x0,%esi
  401f0a:	bf 00 00 00 00       	mov    $0x0,%edi
  401f0f:	e8 ce fc ff ff       	callq  401be2 <notify_server>
  401f14:	bf 01 00 00 00       	mov    $0x1,%edi
  401f19:	e8 52 ef ff ff       	callq  400e70 <exit@plt>

0000000000401f1e <seghandler>:
  401f1e:	48 83 ec 08          	sub    $0x8,%rsp
  401f22:	83 3d ff 25 20 00 00 	cmpl   $0x0,0x2025ff(%rip)        # 604528 <is_checker>
  401f29:	74 14                	je     401f3f <seghandler+0x21>
  401f2b:	bf bd 33 40 00       	mov    $0x4033bd,%edi
  401f30:	e8 ab ed ff ff       	callq  400ce0 <puts@plt>
  401f35:	b8 00 00 00 00       	mov    $0x0,%eax
  401f3a:	e8 1c fc ff ff       	callq  401b5b <check_fail>
  401f3f:	bf 28 35 40 00       	mov    $0x403528,%edi
  401f44:	e8 97 ed ff ff       	callq  400ce0 <puts@plt>
  401f49:	bf a7 33 40 00       	mov    $0x4033a7,%edi
  401f4e:	e8 8d ed ff ff       	callq  400ce0 <puts@plt>
  401f53:	be 00 00 00 00       	mov    $0x0,%esi
  401f58:	bf 00 00 00 00       	mov    $0x0,%edi
  401f5d:	e8 80 fc ff ff       	callq  401be2 <notify_server>
  401f62:	bf 01 00 00 00       	mov    $0x1,%edi
  401f67:	e8 04 ef ff ff       	callq  400e70 <exit@plt>

0000000000401f6c <illegalhandler>:
  401f6c:	48 83 ec 08          	sub    $0x8,%rsp
  401f70:	83 3d b1 25 20 00 00 	cmpl   $0x0,0x2025b1(%rip)        # 604528 <is_checker>
  401f77:	74 14                	je     401f8d <illegalhandler+0x21>
  401f79:	bf d0 33 40 00       	mov    $0x4033d0,%edi
  401f7e:	e8 5d ed ff ff       	callq  400ce0 <puts@plt>
  401f83:	b8 00 00 00 00       	mov    $0x0,%eax
  401f88:	e8 ce fb ff ff       	callq  401b5b <check_fail>
  401f8d:	bf 50 35 40 00       	mov    $0x403550,%edi
  401f92:	e8 49 ed ff ff       	callq  400ce0 <puts@plt>
  401f97:	bf a7 33 40 00       	mov    $0x4033a7,%edi
  401f9c:	e8 3f ed ff ff       	callq  400ce0 <puts@plt>
  401fa1:	be 00 00 00 00       	mov    $0x0,%esi
  401fa6:	bf 00 00 00 00       	mov    $0x0,%edi
  401fab:	e8 32 fc ff ff       	callq  401be2 <notify_server>
  401fb0:	bf 01 00 00 00       	mov    $0x1,%edi
  401fb5:	e8 b6 ee ff ff       	callq  400e70 <exit@plt>

0000000000401fba <sigalrmhandler>:
  401fba:	48 83 ec 08          	sub    $0x8,%rsp
  401fbe:	83 3d 63 25 20 00 00 	cmpl   $0x0,0x202563(%rip)        # 604528 <is_checker>
  401fc5:	74 14                	je     401fdb <sigalrmhandler+0x21>
  401fc7:	bf e4 33 40 00       	mov    $0x4033e4,%edi
  401fcc:	e8 0f ed ff ff       	callq  400ce0 <puts@plt>
  401fd1:	b8 00 00 00 00       	mov    $0x0,%eax
  401fd6:	e8 80 fb ff ff       	callq  401b5b <check_fail>
  401fdb:	ba 05 00 00 00       	mov    $0x5,%edx
  401fe0:	be 80 35 40 00       	mov    $0x403580,%esi
  401fe5:	bf 01 00 00 00       	mov    $0x1,%edi
  401fea:	b8 00 00 00 00       	mov    $0x0,%eax
  401fef:	e8 2c ee ff ff       	callq  400e20 <__printf_chk@plt>
  401ff4:	be 00 00 00 00       	mov    $0x0,%esi
  401ff9:	bf 00 00 00 00       	mov    $0x0,%edi
  401ffe:	e8 df fb ff ff       	callq  401be2 <notify_server>
  402003:	bf 01 00 00 00       	mov    $0x1,%edi
  402008:	e8 63 ee ff ff       	callq  400e70 <exit@plt>

000000000040200d <launch>:
  40200d:	55                   	push   %rbp
  40200e:	48 89 e5             	mov    %rsp,%rbp
  402011:	48 83 ec 10          	sub    $0x10,%rsp
  402015:	48 89 fa             	mov    %rdi,%rdx
  402018:	64 48 8b 04 25 28 00 	mov    %fs:0x28,%rax
  40201f:	00 00 
  402021:	48 89 45 f8          	mov    %rax,-0x8(%rbp)
  402025:	31 c0                	xor    %eax,%eax
  402027:	48 8d 47 1e          	lea    0x1e(%rdi),%rax
  40202b:	48 83 e0 f0          	and    $0xfffffffffffffff0,%rax
  40202f:	48 29 c4             	sub    %rax,%rsp
  402032:	48 8d 7c 24 0f       	lea    0xf(%rsp),%rdi
  402037:	48 83 e7 f0          	and    $0xfffffffffffffff0,%rdi
  40203b:	be f4 00 00 00       	mov    $0xf4,%esi
  402040:	e8 db ec ff ff       	callq  400d20 <memset@plt>
  402045:	48 8b 05 74 24 20 00 	mov    0x202474(%rip),%rax        # 6044c0 <stdin@@GLIBC_2.2.5>
  40204c:	48 39 05 bd 24 20 00 	cmp    %rax,0x2024bd(%rip)        # 604510 <infile>
  402053:	75 14                	jne    402069 <launch+0x5c>
  402055:	be ec 33 40 00       	mov    $0x4033ec,%esi
  40205a:	bf 01 00 00 00       	mov    $0x1,%edi
  40205f:	b8 00 00 00 00       	mov    $0x0,%eax
  402064:	e8 b7 ed ff ff       	callq  400e20 <__printf_chk@plt>
  402069:	c7 05 a9 24 20 00 00 	movl   $0x0,0x2024a9(%rip)        # 60451c <vlevel>
  402070:	00 00 00 
  402073:	b8 00 00 00 00       	mov    $0x0,%eax
  402078:	e8 42 fa ff ff       	callq  401abf <test>
  40207d:	83 3d a4 24 20 00 00 	cmpl   $0x0,0x2024a4(%rip)        # 604528 <is_checker>
  402084:	74 14                	je     40209a <launch+0x8d>
  402086:	bf f9 33 40 00       	mov    $0x4033f9,%edi
  40208b:	e8 50 ec ff ff       	callq  400ce0 <puts@plt>
  402090:	b8 00 00 00 00       	mov    $0x0,%eax
  402095:	e8 c1 fa ff ff       	callq  401b5b <check_fail>
  40209a:	bf 04 34 40 00       	mov    $0x403404,%edi
  40209f:	e8 3c ec ff ff       	callq  400ce0 <puts@plt>
  4020a4:	48 8b 45 f8          	mov    -0x8(%rbp),%rax
  4020a8:	64 48 33 04 25 28 00 	xor    %fs:0x28,%rax
  4020af:	00 00 
  4020b1:	74 05                	je     4020b8 <launch+0xab>
  4020b3:	e8 48 ec ff ff       	callq  400d00 <__stack_chk_fail@plt>
  4020b8:	c9                   	leaveq 
  4020b9:	c3                   	retq   

00000000004020ba <stable_launch>:
  4020ba:	53                   	push   %rbx
  4020bb:	48 89 3d 46 24 20 00 	mov    %rdi,0x202446(%rip)        # 604508 <global_offset>
  4020c2:	41 b9 00 00 00 00    	mov    $0x0,%r9d
  4020c8:	41 b8 00 00 00 00    	mov    $0x0,%r8d
  4020ce:	b9 32 01 00 00       	mov    $0x132,%ecx
  4020d3:	ba 07 00 00 00       	mov    $0x7,%edx
  4020d8:	be 00 00 10 00       	mov    $0x100000,%esi
  4020dd:	bf 00 60 58 55       	mov    $0x55586000,%edi
  4020e2:	e8 29 ec ff ff       	callq  400d10 <mmap@plt>
  4020e7:	48 89 c3             	mov    %rax,%rbx
  4020ea:	48 3d 00 60 58 55    	cmp    $0x55586000,%rax
  4020f0:	74 37                	je     402129 <stable_launch+0x6f>
  4020f2:	be 00 00 10 00       	mov    $0x100000,%esi
  4020f7:	48 89 c7             	mov    %rax,%rdi
  4020fa:	e8 11 ed ff ff       	callq  400e10 <munmap@plt>
  4020ff:	b9 00 60 58 55       	mov    $0x55586000,%ecx
  402104:	ba b8 35 40 00       	mov    $0x4035b8,%edx
  402109:	be 01 00 00 00       	mov    $0x1,%esi
  40210e:	48 8b 3d d3 23 20 00 	mov    0x2023d3(%rip),%rdi        # 6044e8 <stderr@@GLIBC_2.2.5>
  402115:	b8 00 00 00 00       	mov    $0x0,%eax
  40211a:	e8 71 ed ff ff       	callq  400e90 <__fprintf_chk@plt>
  40211f:	bf 01 00 00 00       	mov    $0x1,%edi
  402124:	e8 47 ed ff ff       	callq  400e70 <exit@plt>
  402129:	48 8d 90 f8 ff 0f 00 	lea    0xffff8(%rax),%rdx
  402130:	48 89 15 19 30 20 00 	mov    %rdx,0x203019(%rip)        # 605150 <stack_top>
  402137:	48 89 e0             	mov    %rsp,%rax
  40213a:	48 89 d4             	mov    %rdx,%rsp
  40213d:	48 89 c2             	mov    %rax,%rdx
  402140:	48 89 15 b9 23 20 00 	mov    %rdx,0x2023b9(%rip)        # 604500 <global_save_stack>
  402147:	48 8b 3d ba 23 20 00 	mov    0x2023ba(%rip),%rdi        # 604508 <global_offset>
  40214e:	e8 ba fe ff ff       	callq  40200d <launch>
  402153:	48 8b 05 a6 23 20 00 	mov    0x2023a6(%rip),%rax        # 604500 <global_save_stack>
  40215a:	48 89 c4             	mov    %rax,%rsp
  40215d:	be 00 00 10 00       	mov    $0x100000,%esi
  402162:	48 89 df             	mov    %rbx,%rdi
  402165:	e8 a6 ec ff ff       	callq  400e10 <munmap@plt>
  40216a:	5b                   	pop    %rbx
  40216b:	c3                   	retq   
  40216c:	0f 1f 40 00          	nopl   0x0(%rax)

0000000000402170 <rio_readinitb>:
  402170:	89 37                	mov    %esi,(%rdi)
  402172:	c7 47 04 00 00 00 00 	movl   $0x0,0x4(%rdi)
  402179:	48 8d 47 10          	lea    0x10(%rdi),%rax
  40217d:	48 89 47 08          	mov    %rax,0x8(%rdi)
  402181:	c3                   	retq   

0000000000402182 <sigalrm_handler>:
  402182:	48 83 ec 08          	sub    $0x8,%rsp
  402186:	b9 00 00 00 00       	mov    $0x0,%ecx
  40218b:	ba f0 35 40 00       	mov    $0x4035f0,%edx
  402190:	be 01 00 00 00       	mov    $0x1,%esi
  402195:	48 8b 3d 4c 23 20 00 	mov    0x20234c(%rip),%rdi        # 6044e8 <stderr@@GLIBC_2.2.5>
  40219c:	b8 00 00 00 00       	mov    $0x0,%eax
  4021a1:	e8 ea ec ff ff       	callq  400e90 <__fprintf_chk@plt>
  4021a6:	bf 01 00 00 00       	mov    $0x1,%edi
  4021ab:	e8 c0 ec ff ff       	callq  400e70 <exit@plt>

00000000004021b0 <rio_writen>:
  4021b0:	41 55                	push   %r13
  4021b2:	41 54                	push   %r12
  4021b4:	55                   	push   %rbp
  4021b5:	53                   	push   %rbx
  4021b6:	48 83 ec 08          	sub    $0x8,%rsp
  4021ba:	41 89 fc             	mov    %edi,%r12d
  4021bd:	48 89 f5             	mov    %rsi,%rbp
  4021c0:	49 89 d5             	mov    %rdx,%r13
  4021c3:	48 89 d3             	mov    %rdx,%rbx
  4021c6:	eb 28                	jmp    4021f0 <rio_writen+0x40>
  4021c8:	48 89 da             	mov    %rbx,%rdx
  4021cb:	48 89 ee             	mov    %rbp,%rsi
  4021ce:	44 89 e7             	mov    %r12d,%edi
  4021d1:	e8 1a eb ff ff       	callq  400cf0 <write@plt>
  4021d6:	48 85 c0             	test   %rax,%rax
  4021d9:	7f 0f                	jg     4021ea <rio_writen+0x3a>
  4021db:	e8 c0 ea ff ff       	callq  400ca0 <__errno_location@plt>
  4021e0:	83 38 04             	cmpl   $0x4,(%rax)
  4021e3:	75 15                	jne    4021fa <rio_writen+0x4a>
  4021e5:	b8 00 00 00 00       	mov    $0x0,%eax
  4021ea:	48 29 c3             	sub    %rax,%rbx
  4021ed:	48 01 c5             	add    %rax,%rbp
  4021f0:	48 85 db             	test   %rbx,%rbx
  4021f3:	75 d3                	jne    4021c8 <rio_writen+0x18>
  4021f5:	4c 89 e8             	mov    %r13,%rax
  4021f8:	eb 07                	jmp    402201 <rio_writen+0x51>
  4021fa:	48 c7 c0 ff ff ff ff 	mov    $0xffffffffffffffff,%rax
  402201:	48 83 c4 08          	add    $0x8,%rsp
  402205:	5b                   	pop    %rbx
  402206:	5d                   	pop    %rbp
  402207:	41 5c                	pop    %r12
  402209:	41 5d                	pop    %r13
  40220b:	c3                   	retq   

000000000040220c <rio_read>:
  40220c:	41 56                	push   %r14
  40220e:	41 55                	push   %r13
  402210:	41 54                	push   %r12
  402212:	55                   	push   %rbp
  402213:	53                   	push   %rbx
  402214:	48 89 fb             	mov    %rdi,%rbx
  402217:	49 89 f6             	mov    %rsi,%r14
  40221a:	49 89 d5             	mov    %rdx,%r13
  40221d:	4c 8d 67 10          	lea    0x10(%rdi),%r12
  402221:	eb 2a                	jmp    40224d <rio_read+0x41>
  402223:	8b 3b                	mov    (%rbx),%edi
  402225:	ba 00 20 00 00       	mov    $0x2000,%edx
  40222a:	4c 89 e6             	mov    %r12,%rsi
  40222d:	e8 1e eb ff ff       	callq  400d50 <read@plt>
  402232:	89 43 04             	mov    %eax,0x4(%rbx)
  402235:	85 c0                	test   %eax,%eax
  402237:	79 0c                	jns    402245 <rio_read+0x39>
  402239:	e8 62 ea ff ff       	callq  400ca0 <__errno_location@plt>
  40223e:	83 38 04             	cmpl   $0x4,(%rax)
  402241:	74 0a                	je     40224d <rio_read+0x41>
  402243:	eb 37                	jmp    40227c <rio_read+0x70>
  402245:	85 c0                	test   %eax,%eax
  402247:	74 3c                	je     402285 <rio_read+0x79>
  402249:	4c 89 63 08          	mov    %r12,0x8(%rbx)
  40224d:	8b 6b 04             	mov    0x4(%rbx),%ebp
  402250:	85 ed                	test   %ebp,%ebp
  402252:	7e cf                	jle    402223 <rio_read+0x17>
  402254:	89 e8                	mov    %ebp,%eax
  402256:	4c 39 e8             	cmp    %r13,%rax
  402259:	72 03                	jb     40225e <rio_read+0x52>
  40225b:	44 89 ed             	mov    %r13d,%ebp
  40225e:	4c 63 e5             	movslq %ebp,%r12
  402261:	48 8b 73 08          	mov    0x8(%rbx),%rsi
  402265:	4c 89 e2             	mov    %r12,%rdx
  402268:	4c 89 f7             	mov    %r14,%rdi
  40226b:	e8 50 eb ff ff       	callq  400dc0 <memcpy@plt>
  402270:	4c 01 63 08          	add    %r12,0x8(%rbx)
  402274:	29 6b 04             	sub    %ebp,0x4(%rbx)
  402277:	4c 89 e0             	mov    %r12,%rax
  40227a:	eb 0e                	jmp    40228a <rio_read+0x7e>
  40227c:	48 c7 c0 ff ff ff ff 	mov    $0xffffffffffffffff,%rax
  402283:	eb 05                	jmp    40228a <rio_read+0x7e>
  402285:	b8 00 00 00 00       	mov    $0x0,%eax
  40228a:	5b                   	pop    %rbx
  40228b:	5d                   	pop    %rbp
  40228c:	41 5c                	pop    %r12
  40228e:	41 5d                	pop    %r13
  402290:	41 5e                	pop    %r14
  402292:	c3                   	retq   

0000000000402293 <rio_readlineb>:
  402293:	41 55                	push   %r13
  402295:	41 54                	push   %r12
  402297:	55                   	push   %rbp
  402298:	53                   	push   %rbx
  402299:	48 83 ec 18          	sub    $0x18,%rsp
  40229d:	49 89 fd             	mov    %rdi,%r13
  4022a0:	48 89 f5             	mov    %rsi,%rbp
  4022a3:	49 89 d4             	mov    %rdx,%r12
  4022a6:	bb 01 00 00 00       	mov    $0x1,%ebx
  4022ab:	eb 3e                	jmp    4022eb <rio_readlineb+0x58>
  4022ad:	ba 01 00 00 00       	mov    $0x1,%edx
  4022b2:	48 8d 74 24 0f       	lea    0xf(%rsp),%rsi
  4022b7:	4c 89 ef             	mov    %r13,%rdi
  4022ba:	e8 4d ff ff ff       	callq  40220c <rio_read>
  4022bf:	83 f8 01             	cmp    $0x1,%eax
  4022c2:	75 12                	jne    4022d6 <rio_readlineb+0x43>
  4022c4:	48 8d 55 01          	lea    0x1(%rbp),%rdx
  4022c8:	0f b6 44 24 0f       	movzbl 0xf(%rsp),%eax
  4022cd:	88 45 00             	mov    %al,0x0(%rbp)
  4022d0:	3c 0a                	cmp    $0xa,%al
  4022d2:	75 10                	jne    4022e4 <rio_readlineb+0x51>
  4022d4:	eb 1c                	jmp    4022f2 <rio_readlineb+0x5f>
  4022d6:	85 c0                	test   %eax,%eax
  4022d8:	75 24                	jne    4022fe <rio_readlineb+0x6b>
  4022da:	48 83 fb 01          	cmp    $0x1,%rbx
  4022de:	66 90                	xchg   %ax,%ax
  4022e0:	75 13                	jne    4022f5 <rio_readlineb+0x62>
  4022e2:	eb 23                	jmp    402307 <rio_readlineb+0x74>
  4022e4:	48 83 c3 01          	add    $0x1,%rbx
  4022e8:	48 89 d5             	mov    %rdx,%rbp
  4022eb:	4c 39 e3             	cmp    %r12,%rbx
  4022ee:	72 bd                	jb     4022ad <rio_readlineb+0x1a>
  4022f0:	eb 03                	jmp    4022f5 <rio_readlineb+0x62>
  4022f2:	48 89 d5             	mov    %rdx,%rbp
  4022f5:	c6 45 00 00          	movb   $0x0,0x0(%rbp)
  4022f9:	48 89 d8             	mov    %rbx,%rax
  4022fc:	eb 0e                	jmp    40230c <rio_readlineb+0x79>
  4022fe:	48 c7 c0 ff ff ff ff 	mov    $0xffffffffffffffff,%rax
  402305:	eb 05                	jmp    40230c <rio_readlineb+0x79>
  402307:	b8 00 00 00 00       	mov    $0x0,%eax
  40230c:	48 83 c4 18          	add    $0x18,%rsp
  402310:	5b                   	pop    %rbx
  402311:	5d                   	pop    %rbp
  402312:	41 5c                	pop    %r12
  402314:	41 5d                	pop    %r13
  402316:	c3                   	retq   

0000000000402317 <urlencode>:
  402317:	41 54                	push   %r12
  402319:	55                   	push   %rbp
  40231a:	53                   	push   %rbx
  40231b:	48 83 ec 10          	sub    $0x10,%rsp
  40231f:	48 89 fb             	mov    %rdi,%rbx
  402322:	48 89 f5             	mov    %rsi,%rbp
  402325:	64 48 8b 04 25 28 00 	mov    %fs:0x28,%rax
  40232c:	00 00 
  40232e:	48 89 44 24 08       	mov    %rax,0x8(%rsp)
  402333:	31 c0                	xor    %eax,%eax
  402335:	48 c7 c1 ff ff ff ff 	mov    $0xffffffffffffffff,%rcx
  40233c:	f2 ae                	repnz scas %es:(%rdi),%al
  40233e:	48 f7 d1             	not    %rcx
  402341:	8d 41 ff             	lea    -0x1(%rcx),%eax
  402344:	e9 aa 00 00 00       	jmpq   4023f3 <urlencode+0xdc>
  402349:	44 0f b6 03          	movzbl (%rbx),%r8d
  40234d:	41 80 f8 2a          	cmp    $0x2a,%r8b
  402351:	0f 94 c2             	sete   %dl
  402354:	41 80 f8 2d          	cmp    $0x2d,%r8b
  402358:	0f 94 c0             	sete   %al
  40235b:	08 c2                	or     %al,%dl
  40235d:	75 24                	jne    402383 <urlencode+0x6c>
  40235f:	41 80 f8 2e          	cmp    $0x2e,%r8b
  402363:	74 1e                	je     402383 <urlencode+0x6c>
  402365:	41 80 f8 5f          	cmp    $0x5f,%r8b
  402369:	74 18                	je     402383 <urlencode+0x6c>
  40236b:	41 8d 40 d0          	lea    -0x30(%r8),%eax
  40236f:	3c 09                	cmp    $0x9,%al
  402371:	76 10                	jbe    402383 <urlencode+0x6c>
  402373:	41 8d 40 bf          	lea    -0x41(%r8),%eax
  402377:	3c 19                	cmp    $0x19,%al
  402379:	76 08                	jbe    402383 <urlencode+0x6c>
  40237b:	41 8d 40 9f          	lea    -0x61(%r8),%eax
  40237f:	3c 19                	cmp    $0x19,%al
  402381:	77 0a                	ja     40238d <urlencode+0x76>
  402383:	44 88 45 00          	mov    %r8b,0x0(%rbp)
  402387:	48 8d 6d 01          	lea    0x1(%rbp),%rbp
  40238b:	eb 5f                	jmp    4023ec <urlencode+0xd5>
  40238d:	41 80 f8 20          	cmp    $0x20,%r8b
  402391:	75 0a                	jne    40239d <urlencode+0x86>
  402393:	c6 45 00 2b          	movb   $0x2b,0x0(%rbp)
  402397:	48 8d 6d 01          	lea    0x1(%rbp),%rbp
  40239b:	eb 4f                	jmp    4023ec <urlencode+0xd5>
  40239d:	41 8d 40 e0          	lea    -0x20(%r8),%eax
  4023a1:	3c 5f                	cmp    $0x5f,%al
  4023a3:	0f 96 c2             	setbe  %dl
  4023a6:	41 80 f8 09          	cmp    $0x9,%r8b
  4023aa:	0f 94 c0             	sete   %al
  4023ad:	08 c2                	or     %al,%dl
  4023af:	74 50                	je     402401 <urlencode+0xea>
  4023b1:	45 0f b6 c0          	movzbl %r8b,%r8d
  4023b5:	b9 88 36 40 00       	mov    $0x403688,%ecx
  4023ba:	ba 08 00 00 00       	mov    $0x8,%edx
  4023bf:	be 01 00 00 00       	mov    $0x1,%esi
  4023c4:	48 89 e7             	mov    %rsp,%rdi
  4023c7:	b8 00 00 00 00       	mov    $0x0,%eax
  4023cc:	e8 cf ea ff ff       	callq  400ea0 <__sprintf_chk@plt>
  4023d1:	0f b6 04 24          	movzbl (%rsp),%eax
  4023d5:	88 45 00             	mov    %al,0x0(%rbp)
  4023d8:	0f b6 44 24 01       	movzbl 0x1(%rsp),%eax
  4023dd:	88 45 01             	mov    %al,0x1(%rbp)
  4023e0:	0f b6 44 24 02       	movzbl 0x2(%rsp),%eax
  4023e5:	88 45 02             	mov    %al,0x2(%rbp)
  4023e8:	48 8d 6d 03          	lea    0x3(%rbp),%rbp
  4023ec:	48 83 c3 01          	add    $0x1,%rbx
  4023f0:	44 89 e0             	mov    %r12d,%eax
  4023f3:	44 8d 60 ff          	lea    -0x1(%rax),%r12d
  4023f7:	85 c0                	test   %eax,%eax
  4023f9:	0f 85 4a ff ff ff    	jne    402349 <urlencode+0x32>
  4023ff:	eb 05                	jmp    402406 <urlencode+0xef>
  402401:	b8 ff ff ff ff       	mov    $0xffffffff,%eax
  402406:	48 8b 74 24 08       	mov    0x8(%rsp),%rsi
  40240b:	64 48 33 34 25 28 00 	xor    %fs:0x28,%rsi
  402412:	00 00 
  402414:	74 05                	je     40241b <urlencode+0x104>
  402416:	e8 e5 e8 ff ff       	callq  400d00 <__stack_chk_fail@plt>
  40241b:	48 83 c4 10          	add    $0x10,%rsp
  40241f:	5b                   	pop    %rbx
  402420:	5d                   	pop    %rbp
  402421:	41 5c                	pop    %r12
  402423:	c3                   	retq   

0000000000402424 <submitr>:
  402424:	41 57                	push   %r15
  402426:	41 56                	push   %r14
  402428:	41 55                	push   %r13
  40242a:	41 54                	push   %r12
  40242c:	55                   	push   %rbp
  40242d:	53                   	push   %rbx
  40242e:	48 81 ec 68 a0 00 00 	sub    $0xa068,%rsp
  402435:	49 89 fc             	mov    %rdi,%r12
  402438:	89 74 24 14          	mov    %esi,0x14(%rsp)
  40243c:	49 89 d7             	mov    %rdx,%r15
  40243f:	49 89 ce             	mov    %rcx,%r14
  402442:	4c 89 44 24 18       	mov    %r8,0x18(%rsp)
  402447:	4d 89 cd             	mov    %r9,%r13
  40244a:	48 8b 9c 24 a0 a0 00 	mov    0xa0a0(%rsp),%rbx
  402451:	00 
  402452:	64 48 8b 04 25 28 00 	mov    %fs:0x28,%rax
  402459:	00 00 
  40245b:	48 89 84 24 58 a0 00 	mov    %rax,0xa058(%rsp)
  402462:	00 
  402463:	31 c0                	xor    %eax,%eax
  402465:	c7 44 24 2c 00 00 00 	movl   $0x0,0x2c(%rsp)
  40246c:	00 
  40246d:	ba 00 00 00 00       	mov    $0x0,%edx
  402472:	be 01 00 00 00       	mov    $0x1,%esi
  402477:	bf 02 00 00 00       	mov    $0x2,%edi
  40247c:	e8 2f ea ff ff       	callq  400eb0 <socket@plt>
  402481:	89 c5                	mov    %eax,%ebp
  402483:	85 c0                	test   %eax,%eax
  402485:	79 4e                	jns    4024d5 <submitr+0xb1>
  402487:	48 b8 45 72 72 6f 72 	movabs $0x43203a726f727245,%rax
  40248e:	3a 20 43 
  402491:	48 89 03             	mov    %rax,(%rbx)
  402494:	48 b8 6c 69 65 6e 74 	movabs $0x6e7520746e65696c,%rax
  40249b:	20 75 6e 
  40249e:	48 89 43 08          	mov    %rax,0x8(%rbx)
  4024a2:	48 b8 61 62 6c 65 20 	movabs $0x206f7420656c6261,%rax
  4024a9:	74 6f 20 
  4024ac:	48 89 43 10          	mov    %rax,0x10(%rbx)
  4024b0:	48 b8 63 72 65 61 74 	movabs $0x7320657461657263,%rax
  4024b7:	65 20 73 
  4024ba:	48 89 43 18          	mov    %rax,0x18(%rbx)
  4024be:	c7 43 20 6f 63 6b 65 	movl   $0x656b636f,0x20(%rbx)
  4024c5:	66 c7 43 24 74 00    	movw   $0x74,0x24(%rbx)
  4024cb:	b8 ff ff ff ff       	mov    $0xffffffff,%eax
  4024d0:	e9 84 06 00 00       	jmpq   402b59 <submitr+0x735>
  4024d5:	4c 89 e7             	mov    %r12,%rdi
  4024d8:	e8 a3 e8 ff ff       	callq  400d80 <gethostbyname@plt>
  4024dd:	48 85 c0             	test   %rax,%rax
  4024e0:	75 67                	jne    402549 <submitr+0x125>
  4024e2:	48 b8 45 72 72 6f 72 	movabs $0x44203a726f727245,%rax
  4024e9:	3a 20 44 
  4024ec:	48 89 03             	mov    %rax,(%rbx)
  4024ef:	48 b8 4e 53 20 69 73 	movabs $0x6e7520736920534e,%rax
  4024f6:	20 75 6e 
  4024f9:	48 89 43 08          	mov    %rax,0x8(%rbx)
  4024fd:	48 b8 61 62 6c 65 20 	movabs $0x206f7420656c6261,%rax
  402504:	74 6f 20 
  402507:	48 89 43 10          	mov    %rax,0x10(%rbx)
  40250b:	48 b8 72 65 73 6f 6c 	movabs $0x2065766c6f736572,%rax
  402512:	76 65 20 
  402515:	48 89 43 18          	mov    %rax,0x18(%rbx)
  402519:	48 b8 73 65 72 76 65 	movabs $0x6120726576726573,%rax
  402520:	72 20 61 
  402523:	48 89 43 20          	mov    %rax,0x20(%rbx)
  402527:	c7 43 28 64 64 72 65 	movl   $0x65726464,0x28(%rbx)
  40252e:	66 c7 43 2c 73 73    	movw   $0x7373,0x2c(%rbx)
  402534:	c6 43 2e 00          	movb   $0x0,0x2e(%rbx)
  402538:	89 ef                	mov    %ebp,%edi
  40253a:	e8 01 e8 ff ff       	callq  400d40 <close@plt>
  40253f:	b8 ff ff ff ff       	mov    $0xffffffff,%eax
  402544:	e9 10 06 00 00       	jmpq   402b59 <submitr+0x735>
  402549:	48 c7 44 24 30 00 00 	movq   $0x0,0x30(%rsp)
  402550:	00 00 
  402552:	48 c7 44 24 38 00 00 	movq   $0x0,0x38(%rsp)
  402559:	00 00 
  40255b:	66 c7 44 24 30 02 00 	movw   $0x2,0x30(%rsp)
  402562:	48 63 50 14          	movslq 0x14(%rax),%rdx
  402566:	48 8b 40 18          	mov    0x18(%rax),%rax
  40256a:	48 8b 30             	mov    (%rax),%rsi
  40256d:	48 8d 7c 24 34       	lea    0x34(%rsp),%rdi
  402572:	b9 0c 00 00 00       	mov    $0xc,%ecx
  402577:	e8 14 e8 ff ff       	callq  400d90 <__memmove_chk@plt>
  40257c:	0f b7 44 24 14       	movzwl 0x14(%rsp),%eax
  402581:	66 c1 c8 08          	ror    $0x8,%ax
  402585:	66 89 44 24 32       	mov    %ax,0x32(%rsp)
  40258a:	ba 10 00 00 00       	mov    $0x10,%edx
  40258f:	48 8d 74 24 30       	lea    0x30(%rsp),%rsi
  402594:	89 ef                	mov    %ebp,%edi
  402596:	e8 e5 e8 ff ff       	callq  400e80 <connect@plt>
  40259b:	85 c0                	test   %eax,%eax
  40259d:	79 59                	jns    4025f8 <submitr+0x1d4>
  40259f:	48 b8 45 72 72 6f 72 	movabs $0x55203a726f727245,%rax
  4025a6:	3a 20 55 
  4025a9:	48 89 03             	mov    %rax,(%rbx)
  4025ac:	48 b8 6e 61 62 6c 65 	movabs $0x6f7420656c62616e,%rax
  4025b3:	20 74 6f 
  4025b6:	48 89 43 08          	mov    %rax,0x8(%rbx)
  4025ba:	48 b8 20 63 6f 6e 6e 	movabs $0x7463656e6e6f6320,%rax
  4025c1:	65 63 74 
  4025c4:	48 89 43 10          	mov    %rax,0x10(%rbx)
  4025c8:	48 b8 20 74 6f 20 74 	movabs $0x20656874206f7420,%rax
  4025cf:	68 65 20 
  4025d2:	48 89 43 18          	mov    %rax,0x18(%rbx)
  4025d6:	c7 43 20 73 65 72 76 	movl   $0x76726573,0x20(%rbx)
  4025dd:	66 c7 43 24 65 72    	movw   $0x7265,0x24(%rbx)
  4025e3:	c6 43 26 00          	movb   $0x0,0x26(%rbx)
  4025e7:	89 ef                	mov    %ebp,%edi
  4025e9:	e8 52 e7 ff ff       	callq  400d40 <close@plt>
  4025ee:	b8 ff ff ff ff       	mov    $0xffffffff,%eax
  4025f3:	e9 61 05 00 00       	jmpq   402b59 <submitr+0x735>
  4025f8:	48 c7 c2 ff ff ff ff 	mov    $0xffffffffffffffff,%rdx
  4025ff:	4c 89 ef             	mov    %r13,%rdi
  402602:	b8 00 00 00 00       	mov    $0x0,%eax
  402607:	48 89 d1             	mov    %rdx,%rcx
  40260a:	f2 ae                	repnz scas %es:(%rdi),%al
  40260c:	48 f7 d1             	not    %rcx
  40260f:	48 89 ce             	mov    %rcx,%rsi
  402612:	4c 89 ff             	mov    %r15,%rdi
  402615:	48 89 d1             	mov    %rdx,%rcx
  402618:	f2 ae                	repnz scas %es:(%rdi),%al
  40261a:	48 f7 d1             	not    %rcx
  40261d:	49 89 c8             	mov    %rcx,%r8
  402620:	4c 89 f7             	mov    %r14,%rdi
  402623:	48 89 d1             	mov    %rdx,%rcx
  402626:	f2 ae                	repnz scas %es:(%rdi),%al
  402628:	49 29 c8             	sub    %rcx,%r8
  40262b:	48 8b 7c 24 18       	mov    0x18(%rsp),%rdi
  402630:	48 89 d1             	mov    %rdx,%rcx
  402633:	f2 ae                	repnz scas %es:(%rdi),%al
  402635:	49 29 c8             	sub    %rcx,%r8
  402638:	48 8d 44 76 fd       	lea    -0x3(%rsi,%rsi,2),%rax
  40263d:	49 8d 44 00 7b       	lea    0x7b(%r8,%rax,1),%rax
  402642:	48 3d 00 20 00 00    	cmp    $0x2000,%rax
  402648:	76 72                	jbe    4026bc <submitr+0x298>
  40264a:	48 b8 45 72 72 6f 72 	movabs $0x52203a726f727245,%rax
  402651:	3a 20 52 
  402654:	48 89 03             	mov    %rax,(%rbx)
  402657:	48 b8 65 73 75 6c 74 	movabs $0x747320746c757365,%rax
  40265e:	20 73 74 
  402661:	48 89 43 08          	mov    %rax,0x8(%rbx)
  402665:	48 b8 72 69 6e 67 20 	movabs $0x6f6f7420676e6972,%rax
  40266c:	74 6f 6f 
  40266f:	48 89 43 10          	mov    %rax,0x10(%rbx)
  402673:	48 b8 20 6c 61 72 67 	movabs $0x202e656772616c20,%rax
  40267a:	65 2e 20 
  40267d:	48 89 43 18          	mov    %rax,0x18(%rbx)
  402681:	48 b8 49 6e 63 72 65 	movabs $0x6573616572636e49,%rax
  402688:	61 73 65 
  40268b:	48 89 43 20          	mov    %rax,0x20(%rbx)
  40268f:	48 b8 20 53 55 42 4d 	movabs $0x5254494d42555320,%rax
  402696:	49 54 52 
  402699:	48 89 43 28          	mov    %rax,0x28(%rbx)
  40269d:	48 b8 5f 4d 41 58 42 	movabs $0x46554258414d5f,%rax
  4026a4:	55 46 00 
  4026a7:	48 89 43 30          	mov    %rax,0x30(%rbx)
  4026ab:	89 ef                	mov    %ebp,%edi
  4026ad:	e8 8e e6 ff ff       	callq  400d40 <close@plt>
  4026b2:	b8 ff ff ff ff       	mov    $0xffffffff,%eax
  4026b7:	e9 9d 04 00 00       	jmpq   402b59 <submitr+0x735>
  4026bc:	48 8d b4 24 40 20 00 	lea    0x2040(%rsp),%rsi
  4026c3:	00 
  4026c4:	b9 00 04 00 00       	mov    $0x400,%ecx
  4026c9:	b8 00 00 00 00       	mov    $0x0,%eax
  4026ce:	48 89 f7             	mov    %rsi,%rdi
  4026d1:	f3 48 ab             	rep stos %rax,%es:(%rdi)
  4026d4:	4c 89 ef             	mov    %r13,%rdi
  4026d7:	e8 3b fc ff ff       	callq  402317 <urlencode>
  4026dc:	85 c0                	test   %eax,%eax
  4026de:	0f 89 8a 00 00 00    	jns    40276e <submitr+0x34a>
  4026e4:	48 b8 45 72 72 6f 72 	movabs $0x52203a726f727245,%rax
  4026eb:	3a 20 52 
  4026ee:	48 89 03             	mov    %rax,(%rbx)
  4026f1:	48 b8 65 73 75 6c 74 	movabs $0x747320746c757365,%rax
  4026f8:	20 73 74 
  4026fb:	48 89 43 08          	mov    %rax,0x8(%rbx)
  4026ff:	48 b8 72 69 6e 67 20 	movabs $0x6e6f6320676e6972,%rax
  402706:	63 6f 6e 
  402709:	48 89 43 10          	mov    %rax,0x10(%rbx)
  40270d:	48 b8 74 61 69 6e 73 	movabs $0x6e6120736e696174,%rax
  402714:	20 61 6e 
  402717:	48 89 43 18          	mov    %rax,0x18(%rbx)
  40271b:	48 b8 20 69 6c 6c 65 	movabs $0x6c6167656c6c6920,%rax
  402722:	67 61 6c 
  402725:	48 89 43 20          	mov    %rax,0x20(%rbx)
  402729:	48 b8 20 6f 72 20 75 	movabs $0x72706e7520726f20,%rax
  402730:	6e 70 72 
  402733:	48 89 43 28          	mov    %rax,0x28(%rbx)
  402737:	48 b8 69 6e 74 61 62 	movabs $0x20656c6261746e69,%rax
  40273e:	6c 65 20 
  402741:	48 89 43 30          	mov    %rax,0x30(%rbx)
  402745:	48 b8 63 68 61 72 61 	movabs $0x6574636172616863,%rax
  40274c:	63 74 65 
  40274f:	48 89 43 38          	mov    %rax,0x38(%rbx)
  402753:	66 c7 43 40 72 2e    	movw   $0x2e72,0x40(%rbx)
  402759:	c6 43 42 00          	movb   $0x0,0x42(%rbx)
  40275d:	89 ef                	mov    %ebp,%edi
  40275f:	e8 dc e5 ff ff       	callq  400d40 <close@plt>
  402764:	b8 ff ff ff ff       	mov    $0xffffffff,%eax
  402769:	e9 eb 03 00 00       	jmpq   402b59 <submitr+0x735>
  40276e:	4c 89 64 24 08       	mov    %r12,0x8(%rsp)
  402773:	48 8d 84 24 40 20 00 	lea    0x2040(%rsp),%rax
  40277a:	00 
  40277b:	48 89 04 24          	mov    %rax,(%rsp)
  40277f:	4d 89 f9             	mov    %r15,%r9
  402782:	4d 89 f0             	mov    %r14,%r8
  402785:	b9 18 36 40 00       	mov    $0x403618,%ecx
  40278a:	ba 00 20 00 00       	mov    $0x2000,%edx
  40278f:	be 01 00 00 00       	mov    $0x1,%esi
  402794:	48 8d 7c 24 40       	lea    0x40(%rsp),%rdi
  402799:	b8 00 00 00 00       	mov    $0x0,%eax
  40279e:	e8 fd e6 ff ff       	callq  400ea0 <__sprintf_chk@plt>
  4027a3:	48 8d 7c 24 40       	lea    0x40(%rsp),%rdi
  4027a8:	b8 00 00 00 00       	mov    $0x0,%eax
  4027ad:	48 c7 c1 ff ff ff ff 	mov    $0xffffffffffffffff,%rcx
  4027b4:	f2 ae                	repnz scas %es:(%rdi),%al
  4027b6:	48 f7 d1             	not    %rcx
  4027b9:	48 8d 51 ff          	lea    -0x1(%rcx),%rdx
  4027bd:	48 8d 74 24 40       	lea    0x40(%rsp),%rsi
  4027c2:	89 ef                	mov    %ebp,%edi
  4027c4:	e8 e7 f9 ff ff       	callq  4021b0 <rio_writen>
  4027c9:	48 85 c0             	test   %rax,%rax
  4027cc:	79 6e                	jns    40283c <submitr+0x418>
  4027ce:	48 b8 45 72 72 6f 72 	movabs $0x43203a726f727245,%rax
  4027d5:	3a 20 43 
  4027d8:	48 89 03             	mov    %rax,(%rbx)
  4027db:	48 b8 6c 69 65 6e 74 	movabs $0x6e7520746e65696c,%rax
  4027e2:	20 75 6e 
  4027e5:	48 89 43 08          	mov    %rax,0x8(%rbx)
  4027e9:	48 b8 61 62 6c 65 20 	movabs $0x206f7420656c6261,%rax
  4027f0:	74 6f 20 
  4027f3:	48 89 43 10          	mov    %rax,0x10(%rbx)
  4027f7:	48 b8 77 72 69 74 65 	movabs $0x6f74206574697277,%rax
  4027fe:	20 74 6f 
  402801:	48 89 43 18          	mov    %rax,0x18(%rbx)
  402805:	48 b8 20 74 68 65 20 	movabs $0x7365722065687420,%rax
  40280c:	72 65 73 
  40280f:	48 89 43 20          	mov    %rax,0x20(%rbx)
  402813:	48 b8 75 6c 74 20 73 	movabs $0x7672657320746c75,%rax
  40281a:	65 72 76 
  40281d:	48 89 43 28          	mov    %rax,0x28(%rbx)
  402821:	66 c7 43 30 65 72    	movw   $0x7265,0x30(%rbx)
  402827:	c6 43 32 00          	movb   $0x0,0x32(%rbx)
  40282b:	89 ef                	mov    %ebp,%edi
  40282d:	e8 0e e5 ff ff       	callq  400d40 <close@plt>
  402832:	b8 ff ff ff ff       	mov    $0xffffffff,%eax
  402837:	e9 1d 03 00 00       	jmpq   402b59 <submitr+0x735>
  40283c:	89 ee                	mov    %ebp,%esi
  40283e:	48 8d bc 24 40 80 00 	lea    0x8040(%rsp),%rdi
  402845:	00 
  402846:	e8 25 f9 ff ff       	callq  402170 <rio_readinitb>
  40284b:	ba 00 20 00 00       	mov    $0x2000,%edx
  402850:	48 8d 74 24 40       	lea    0x40(%rsp),%rsi
  402855:	48 8d bc 24 40 80 00 	lea    0x8040(%rsp),%rdi
  40285c:	00 
  40285d:	e8 31 fa ff ff       	callq  402293 <rio_readlineb>
  402862:	48 85 c0             	test   %rax,%rax
  402865:	7f 7d                	jg     4028e4 <submitr+0x4c0>
  402867:	48 b8 45 72 72 6f 72 	movabs $0x43203a726f727245,%rax
  40286e:	3a 20 43 
  402871:	48 89 03             	mov    %rax,(%rbx)
  402874:	48 b8 6c 69 65 6e 74 	movabs $0x6e7520746e65696c,%rax
  40287b:	20 75 6e 
  40287e:	48 89 43 08          	mov    %rax,0x8(%rbx)
  402882:	48 b8 61 62 6c 65 20 	movabs $0x206f7420656c6261,%rax
  402889:	74 6f 20 
  40288c:	48 89 43 10          	mov    %rax,0x10(%rbx)
  402890:	48 b8 72 65 61 64 20 	movabs $0x7269662064616572,%rax
  402897:	66 69 72 
  40289a:	48 89 43 18          	mov    %rax,0x18(%rbx)
  40289e:	48 b8 73 74 20 68 65 	movabs $0x6564616568207473,%rax
  4028a5:	61 64 65 
  4028a8:	48 89 43 20          	mov    %rax,0x20(%rbx)
  4028ac:	48 b8 72 20 66 72 6f 	movabs $0x72206d6f72662072,%rax
  4028b3:	6d 20 72 
  4028b6:	48 89 43 28          	mov    %rax,0x28(%rbx)
  4028ba:	48 b8 65 73 75 6c 74 	movabs $0x657320746c757365,%rax
  4028c1:	20 73 65 
  4028c4:	48 89 43 30          	mov    %rax,0x30(%rbx)
  4028c8:	c7 43 38 72 76 65 72 	movl   $0x72657672,0x38(%rbx)
  4028cf:	c6 43 3c 00          	movb   $0x0,0x3c(%rbx)
  4028d3:	89 ef                	mov    %ebp,%edi
  4028d5:	e8 66 e4 ff ff       	callq  400d40 <close@plt>
  4028da:	b8 ff ff ff ff       	mov    $0xffffffff,%eax
  4028df:	e9 75 02 00 00       	jmpq   402b59 <submitr+0x735>
  4028e4:	4c 8d 84 24 40 60 00 	lea    0x6040(%rsp),%r8
  4028eb:	00 
  4028ec:	48 8d 4c 24 2c       	lea    0x2c(%rsp),%rcx
  4028f1:	48 8d 94 24 40 40 00 	lea    0x4040(%rsp),%rdx
  4028f8:	00 
  4028f9:	be 8f 36 40 00       	mov    $0x40368f,%esi
  4028fe:	48 8d 7c 24 40       	lea    0x40(%rsp),%rdi
  402903:	b8 00 00 00 00       	mov    $0x0,%eax
  402908:	e8 f3 e4 ff ff       	callq  400e00 <__isoc99_sscanf@plt>
  40290d:	41 bc 0d 00 00 00    	mov    $0xd,%r12d
  402913:	41 bd 0a 00 00 00    	mov    $0xa,%r13d
  402919:	e9 95 00 00 00       	jmpq   4029b3 <submitr+0x58f>
  40291e:	ba 00 20 00 00       	mov    $0x2000,%edx
  402923:	48 8d 74 24 40       	lea    0x40(%rsp),%rsi
  402928:	48 8d bc 24 40 80 00 	lea    0x8040(%rsp),%rdi
  40292f:	00 
  402930:	e8 5e f9 ff ff       	callq  402293 <rio_readlineb>
  402935:	48 85 c0             	test   %rax,%rax
  402938:	7f 79                	jg     4029b3 <submitr+0x58f>
  40293a:	48 b8 45 72 72 6f 72 	movabs $0x43203a726f727245,%rax
  402941:	3a 20 43 
  402944:	48 89 03             	mov    %rax,(%rbx)
  402947:	48 b8 6c 69 65 6e 74 	movabs $0x6e7520746e65696c,%rax
  40294e:	20 75 6e 
  402951:	48 89 43 08          	mov    %rax,0x8(%rbx)
  402955:	48 b8 61 62 6c 65 20 	movabs $0x206f7420656c6261,%rax
  40295c:	74 6f 20 
  40295f:	48 89 43 10          	mov    %rax,0x10(%rbx)
  402963:	48 b8 72 65 61 64 20 	movabs $0x6165682064616572,%rax
  40296a:	68 65 61 
  40296d:	48 89 43 18          	mov    %rax,0x18(%rbx)
  402971:	48 b8 64 65 72 73 20 	movabs $0x6f72662073726564,%rax
  402978:	66 72 6f 
  40297b:	48 89 43 20          	mov    %rax,0x20(%rbx)
  40297f:	48 b8 6d 20 74 68 65 	movabs $0x657220656874206d,%rax
  402986:	20 72 65 
  402989:	48 89 43 28          	mov    %rax,0x28(%rbx)
  40298d:	48 b8 73 75 6c 74 20 	movabs $0x72657320746c7573,%rax
  402994:	73 65 72 
  402997:	48 89 43 30          	mov    %rax,0x30(%rbx)
  40299b:	c7 43 38 76 65 72 00 	movl   $0x726576,0x38(%rbx)
  4029a2:	89 ef                	mov    %ebp,%edi
  4029a4:	e8 97 e3 ff ff       	callq  400d40 <close@plt>
  4029a9:	b8 ff ff ff ff       	mov    $0xffffffff,%eax
  4029ae:	e9 a6 01 00 00       	jmpq   402b59 <submitr+0x735>
  4029b3:	0f b6 44 24 40       	movzbl 0x40(%rsp),%eax
  4029b8:	44 89 e6             	mov    %r12d,%esi
  4029bb:	29 c6                	sub    %eax,%esi
  4029bd:	89 f0                	mov    %esi,%eax
  4029bf:	75 15                	jne    4029d6 <submitr+0x5b2>
  4029c1:	0f b6 44 24 41       	movzbl 0x41(%rsp),%eax
  4029c6:	44 89 ea             	mov    %r13d,%edx
  4029c9:	29 c2                	sub    %eax,%edx
  4029cb:	89 d0                	mov    %edx,%eax
  4029cd:	75 07                	jne    4029d6 <submitr+0x5b2>
  4029cf:	0f b6 44 24 42       	movzbl 0x42(%rsp),%eax
  4029d4:	f7 d8                	neg    %eax
  4029d6:	85 c0                	test   %eax,%eax
  4029d8:	0f 85 40 ff ff ff    	jne    40291e <submitr+0x4fa>
  4029de:	ba 00 20 00 00       	mov    $0x2000,%edx
  4029e3:	48 8d 74 24 40       	lea    0x40(%rsp),%rsi
  4029e8:	48 8d bc 24 40 80 00 	lea    0x8040(%rsp),%rdi
  4029ef:	00 
  4029f0:	e8 9e f8 ff ff       	callq  402293 <rio_readlineb>
  4029f5:	48 85 c0             	test   %rax,%rax
  4029f8:	0f 8f 83 00 00 00    	jg     402a81 <submitr+0x65d>
  4029fe:	48 b8 45 72 72 6f 72 	movabs $0x43203a726f727245,%rax
  402a05:	3a 20 43 
  402a08:	48 89 03             	mov    %rax,(%rbx)
  402a0b:	48 b8 6c 69 65 6e 74 	movabs $0x6e7520746e65696c,%rax
  402a12:	20 75 6e 
  402a15:	48 89 43 08          	mov    %rax,0x8(%rbx)
  402a19:	48 b8 61 62 6c 65 20 	movabs $0x206f7420656c6261,%rax
  402a20:	74 6f 20 
  402a23:	48 89 43 10          	mov    %rax,0x10(%rbx)
  402a27:	48 b8 72 65 61 64 20 	movabs $0x6174732064616572,%rax
  402a2e:	73 74 61 
  402a31:	48 89 43 18          	mov    %rax,0x18(%rbx)
  402a35:	48 b8 74 75 73 20 6d 	movabs $0x7373656d20737574,%rax
  402a3c:	65 73 73 
  402a3f:	48 89 43 20          	mov    %rax,0x20(%rbx)
  402a43:	48 b8 61 67 65 20 66 	movabs $0x6d6f726620656761,%rax
  402a4a:	72 6f 6d 
  402a4d:	48 89 43 28          	mov    %rax,0x28(%rbx)
  402a51:	48 b8 20 72 65 73 75 	movabs $0x20746c7573657220,%rax
  402a58:	6c 74 20 
  402a5b:	48 89 43 30          	mov    %rax,0x30(%rbx)
  402a5f:	c7 43 38 73 65 72 76 	movl   $0x76726573,0x38(%rbx)
  402a66:	66 c7 43 3c 65 72    	movw   $0x7265,0x3c(%rbx)
  402a6c:	c6 43 3e 00          	movb   $0x0,0x3e(%rbx)
  402a70:	89 ef                	mov    %ebp,%edi
  402a72:	e8 c9 e2 ff ff       	callq  400d40 <close@plt>
  402a77:	b8 ff ff ff ff       	mov    $0xffffffff,%eax
  402a7c:	e9 d8 00 00 00       	jmpq   402b59 <submitr+0x735>
  402a81:	44 8b 44 24 2c       	mov    0x2c(%rsp),%r8d
  402a86:	41 81 f8 c8 00 00 00 	cmp    $0xc8,%r8d
  402a8d:	74 37                	je     402ac6 <submitr+0x6a2>
  402a8f:	4c 8d 8c 24 40 60 00 	lea    0x6040(%rsp),%r9
  402a96:	00 
  402a97:	b9 58 36 40 00       	mov    $0x403658,%ecx
  402a9c:	48 c7 c2 ff ff ff ff 	mov    $0xffffffffffffffff,%rdx
  402aa3:	be 01 00 00 00       	mov    $0x1,%esi
  402aa8:	48 89 df             	mov    %rbx,%rdi
  402aab:	b8 00 00 00 00       	mov    $0x0,%eax
  402ab0:	e8 eb e3 ff ff       	callq  400ea0 <__sprintf_chk@plt>
  402ab5:	89 ef                	mov    %ebp,%edi
  402ab7:	e8 84 e2 ff ff       	callq  400d40 <close@plt>
  402abc:	b8 ff ff ff ff       	mov    $0xffffffff,%eax
  402ac1:	e9 93 00 00 00       	jmpq   402b59 <submitr+0x735>
  402ac6:	48 8d 74 24 40       	lea    0x40(%rsp),%rsi
  402acb:	48 89 df             	mov    %rbx,%rdi
  402ace:	e8 fd e1 ff ff       	callq  400cd0 <strcpy@plt>
  402ad3:	89 ef                	mov    %ebp,%edi
  402ad5:	e8 66 e2 ff ff       	callq  400d40 <close@plt>
  402ada:	0f b6 03             	movzbl (%rbx),%eax
  402add:	ba 4f 00 00 00       	mov    $0x4f,%edx
  402ae2:	29 c2                	sub    %eax,%edx
  402ae4:	75 22                	jne    402b08 <submitr+0x6e4>
  402ae6:	0f b6 4b 01          	movzbl 0x1(%rbx),%ecx
  402aea:	b8 4b 00 00 00       	mov    $0x4b,%eax
  402aef:	29 c8                	sub    %ecx,%eax
  402af1:	75 17                	jne    402b0a <submitr+0x6e6>
  402af3:	0f b6 4b 02          	movzbl 0x2(%rbx),%ecx
  402af7:	b8 0a 00 00 00       	mov    $0xa,%eax
  402afc:	29 c8                	sub    %ecx,%eax
  402afe:	75 0a                	jne    402b0a <submitr+0x6e6>
  402b00:	0f b6 43 03          	movzbl 0x3(%rbx),%eax
  402b04:	f7 d8                	neg    %eax
  402b06:	eb 02                	jmp    402b0a <submitr+0x6e6>
  402b08:	89 d0                	mov    %edx,%eax
  402b0a:	85 c0                	test   %eax,%eax
  402b0c:	74 38                	je     402b46 <submitr+0x722>
  402b0e:	bf a0 36 40 00       	mov    $0x4036a0,%edi
  402b13:	b9 05 00 00 00       	mov    $0x5,%ecx
  402b18:	48 89 de             	mov    %rbx,%rsi
  402b1b:	f3 a6                	repz cmpsb %es:(%rdi),%ds:(%rsi)
  402b1d:	0f 97 c1             	seta   %cl
  402b20:	0f 92 c0             	setb   %al
  402b23:	38 c1                	cmp    %al,%cl
  402b25:	74 26                	je     402b4d <submitr+0x729>
  402b27:	85 d2                	test   %edx,%edx
  402b29:	75 10                	jne    402b3b <submitr+0x717>
  402b2b:	0f b6 43 01          	movzbl 0x1(%rbx),%eax
  402b2f:	b2 4b                	mov    $0x4b,%dl
  402b31:	29 c2                	sub    %eax,%edx
  402b33:	75 06                	jne    402b3b <submitr+0x717>
  402b35:	0f b6 53 02          	movzbl 0x2(%rbx),%edx
  402b39:	f7 da                	neg    %edx
  402b3b:	85 d2                	test   %edx,%edx
  402b3d:	75 15                	jne    402b54 <submitr+0x730>
  402b3f:	b8 00 00 00 00       	mov    $0x0,%eax
  402b44:	eb 13                	jmp    402b59 <submitr+0x735>
  402b46:	b8 00 00 00 00       	mov    $0x0,%eax
  402b4b:	eb 0c                	jmp    402b59 <submitr+0x735>
  402b4d:	b8 00 00 00 00       	mov    $0x0,%eax
  402b52:	eb 05                	jmp    402b59 <submitr+0x735>
  402b54:	b8 ff ff ff ff       	mov    $0xffffffff,%eax
  402b59:	48 8b 9c 24 58 a0 00 	mov    0xa058(%rsp),%rbx
  402b60:	00 
  402b61:	64 48 33 1c 25 28 00 	xor    %fs:0x28,%rbx
  402b68:	00 00 
  402b6a:	74 05                	je     402b71 <submitr+0x74d>
  402b6c:	e8 8f e1 ff ff       	callq  400d00 <__stack_chk_fail@plt>
  402b71:	48 81 c4 68 a0 00 00 	add    $0xa068,%rsp
  402b78:	5b                   	pop    %rbx
  402b79:	5d                   	pop    %rbp
  402b7a:	41 5c                	pop    %r12
  402b7c:	41 5d                	pop    %r13
  402b7e:	41 5e                	pop    %r14
  402b80:	41 5f                	pop    %r15
  402b82:	c3                   	retq   

0000000000402b83 <init_timeout>:
  402b83:	53                   	push   %rbx
  402b84:	89 fb                	mov    %edi,%ebx
  402b86:	85 ff                	test   %edi,%edi
  402b88:	74 1f                	je     402ba9 <init_timeout+0x26>
  402b8a:	85 ff                	test   %edi,%edi
  402b8c:	79 05                	jns    402b93 <init_timeout+0x10>
  402b8e:	bb 00 00 00 00       	mov    $0x0,%ebx
  402b93:	be 82 21 40 00       	mov    $0x402182,%esi
  402b98:	bf 0e 00 00 00       	mov    $0xe,%edi
  402b9d:	e8 ce e1 ff ff       	callq  400d70 <signal@plt>
  402ba2:	89 df                	mov    %ebx,%edi
  402ba4:	e8 87 e1 ff ff       	callq  400d30 <alarm@plt>
  402ba9:	5b                   	pop    %rbx
  402baa:	c3                   	retq   

0000000000402bab <init_driver>:
  402bab:	55                   	push   %rbp
  402bac:	53                   	push   %rbx
  402bad:	48 83 ec 28          	sub    $0x28,%rsp
  402bb1:	48 89 fd             	mov    %rdi,%rbp
  402bb4:	64 48 8b 04 25 28 00 	mov    %fs:0x28,%rax
  402bbb:	00 00 
  402bbd:	48 89 44 24 18       	mov    %rax,0x18(%rsp)
  402bc2:	31 c0                	xor    %eax,%eax
  402bc4:	be 01 00 00 00       	mov    $0x1,%esi
  402bc9:	bf 0d 00 00 00       	mov    $0xd,%edi
  402bce:	e8 9d e1 ff ff       	callq  400d70 <signal@plt>
  402bd3:	be 01 00 00 00       	mov    $0x1,%esi
  402bd8:	bf 1d 00 00 00       	mov    $0x1d,%edi
  402bdd:	e8 8e e1 ff ff       	callq  400d70 <signal@plt>
  402be2:	be 01 00 00 00       	mov    $0x1,%esi
  402be7:	bf 1d 00 00 00       	mov    $0x1d,%edi
  402bec:	e8 7f e1 ff ff       	callq  400d70 <signal@plt>
  402bf1:	ba 00 00 00 00       	mov    $0x0,%edx
  402bf6:	be 01 00 00 00       	mov    $0x1,%esi
  402bfb:	bf 02 00 00 00       	mov    $0x2,%edi
  402c00:	e8 ab e2 ff ff       	callq  400eb0 <socket@plt>
  402c05:	89 c3                	mov    %eax,%ebx
  402c07:	85 c0                	test   %eax,%eax
  402c09:	79 4f                	jns    402c5a <init_driver+0xaf>
  402c0b:	48 b8 45 72 72 6f 72 	movabs $0x43203a726f727245,%rax
  402c12:	3a 20 43 
  402c15:	48 89 45 00          	mov    %rax,0x0(%rbp)
  402c19:	48 b8 6c 69 65 6e 74 	movabs $0x6e7520746e65696c,%rax
  402c20:	20 75 6e 
  402c23:	48 89 45 08          	mov    %rax,0x8(%rbp)
  402c27:	48 b8 61 62 6c 65 20 	movabs $0x206f7420656c6261,%rax
  402c2e:	74 6f 20 
  402c31:	48 89 45 10          	mov    %rax,0x10(%rbp)
  402c35:	48 b8 63 72 65 61 74 	movabs $0x7320657461657263,%rax
  402c3c:	65 20 73 
  402c3f:	48 89 45 18          	mov    %rax,0x18(%rbp)
  402c43:	c7 45 20 6f 63 6b 65 	movl   $0x656b636f,0x20(%rbp)
  402c4a:	66 c7 45 24 74 00    	movw   $0x74,0x24(%rbp)
  402c50:	b8 ff ff ff ff       	mov    $0xffffffff,%eax
  402c55:	e9 28 01 00 00       	jmpq   402d82 <init_driver+0x1d7>
  402c5a:	bf a5 36 40 00       	mov    $0x4036a5,%edi
  402c5f:	e8 1c e1 ff ff       	callq  400d80 <gethostbyname@plt>
  402c64:	48 85 c0             	test   %rax,%rax
  402c67:	75 68                	jne    402cd1 <init_driver+0x126>
  402c69:	48 b8 45 72 72 6f 72 	movabs $0x44203a726f727245,%rax
  402c70:	3a 20 44 
  402c73:	48 89 45 00          	mov    %rax,0x0(%rbp)
  402c77:	48 b8 4e 53 20 69 73 	movabs $0x6e7520736920534e,%rax
  402c7e:	20 75 6e 
  402c81:	48 89 45 08          	mov    %rax,0x8(%rbp)
  402c85:	48 b8 61 62 6c 65 20 	movabs $0x206f7420656c6261,%rax
  402c8c:	74 6f 20 
  402c8f:	48 89 45 10          	mov    %rax,0x10(%rbp)
  402c93:	48 b8 72 65 73 6f 6c 	movabs $0x2065766c6f736572,%rax
  402c9a:	76 65 20 
  402c9d:	48 89 45 18          	mov    %rax,0x18(%rbp)
  402ca1:	48 b8 73 65 72 76 65 	movabs $0x6120726576726573,%rax
  402ca8:	72 20 61 
  402cab:	48 89 45 20          	mov    %rax,0x20(%rbp)
  402caf:	c7 45 28 64 64 72 65 	movl   $0x65726464,0x28(%rbp)
  402cb6:	66 c7 45 2c 73 73    	movw   $0x7373,0x2c(%rbp)
  402cbc:	c6 45 2e 00          	movb   $0x0,0x2e(%rbp)
  402cc0:	89 df                	mov    %ebx,%edi
  402cc2:	e8 79 e0 ff ff       	callq  400d40 <close@plt>
  402cc7:	b8 ff ff ff ff       	mov    $0xffffffff,%eax
  402ccc:	e9 b1 00 00 00       	jmpq   402d82 <init_driver+0x1d7>
  402cd1:	48 c7 04 24 00 00 00 	movq   $0x0,(%rsp)
  402cd8:	00 
  402cd9:	48 c7 44 24 08 00 00 	movq   $0x0,0x8(%rsp)
  402ce0:	00 00 
  402ce2:	66 c7 04 24 02 00    	movw   $0x2,(%rsp)
  402ce8:	48 63 50 14          	movslq 0x14(%rax),%rdx
  402cec:	48 8b 40 18          	mov    0x18(%rax),%rax
  402cf0:	48 8b 30             	mov    (%rax),%rsi
  402cf3:	48 8d 7c 24 04       	lea    0x4(%rsp),%rdi
  402cf8:	b9 0c 00 00 00       	mov    $0xc,%ecx
  402cfd:	e8 8e e0 ff ff       	callq  400d90 <__memmove_chk@plt>
  402d02:	66 c7 44 24 02 4f 33 	movw   $0x334f,0x2(%rsp)
  402d09:	ba 10 00 00 00       	mov    $0x10,%edx
  402d0e:	48 89 e6             	mov    %rsp,%rsi
  402d11:	89 df                	mov    %ebx,%edi
  402d13:	e8 68 e1 ff ff       	callq  400e80 <connect@plt>
  402d18:	85 c0                	test   %eax,%eax
  402d1a:	79 50                	jns    402d6c <init_driver+0x1c1>
  402d1c:	48 b8 45 72 72 6f 72 	movabs $0x55203a726f727245,%rax
  402d23:	3a 20 55 
  402d26:	48 89 45 00          	mov    %rax,0x0(%rbp)
  402d2a:	48 b8 6e 61 62 6c 65 	movabs $0x6f7420656c62616e,%rax
  402d31:	20 74 6f 
  402d34:	48 89 45 08          	mov    %rax,0x8(%rbp)
  402d38:	48 b8 20 63 6f 6e 6e 	movabs $0x7463656e6e6f6320,%rax
  402d3f:	65 63 74 
  402d42:	48 89 45 10          	mov    %rax,0x10(%rbp)
  402d46:	48 b8 20 74 6f 20 73 	movabs $0x76726573206f7420,%rax
  402d4d:	65 72 76 
  402d50:	48 89 45 18          	mov    %rax,0x18(%rbp)
  402d54:	66 c7 45 20 65 72    	movw   $0x7265,0x20(%rbp)
  402d5a:	c6 45 22 00          	movb   $0x0,0x22(%rbp)
  402d5e:	89 df                	mov    %ebx,%edi
  402d60:	e8 db df ff ff       	callq  400d40 <close@plt>
  402d65:	b8 ff ff ff ff       	mov    $0xffffffff,%eax
  402d6a:	eb 16                	jmp    402d82 <init_driver+0x1d7>
  402d6c:	89 df                	mov    %ebx,%edi
  402d6e:	e8 cd df ff ff       	callq  400d40 <close@plt>
  402d73:	66 c7 45 00 4f 4b    	movw   $0x4b4f,0x0(%rbp)
  402d79:	c6 45 02 00          	movb   $0x0,0x2(%rbp)
  402d7d:	b8 00 00 00 00       	mov    $0x0,%eax
  402d82:	48 8b 4c 24 18       	mov    0x18(%rsp),%rcx
  402d87:	64 48 33 0c 25 28 00 	xor    %fs:0x28,%rcx
  402d8e:	00 00 
  402d90:	74 05                	je     402d97 <init_driver+0x1ec>
  402d92:	e8 69 df ff ff       	callq  400d00 <__stack_chk_fail@plt>
  402d97:	48 83 c4 28          	add    $0x28,%rsp
  402d9b:	5b                   	pop    %rbx
  402d9c:	5d                   	pop    %rbp
  402d9d:	c3                   	retq   

0000000000402d9e <driver_post>:
  402d9e:	53                   	push   %rbx
  402d9f:	48 83 ec 10          	sub    $0x10,%rsp
  402da3:	4c 89 cb             	mov    %r9,%rbx
  402da6:	45 85 c0             	test   %r8d,%r8d
  402da9:	74 27                	je     402dd2 <driver_post+0x34>
  402dab:	48 89 ca             	mov    %rcx,%rdx
  402dae:	be b4 36 40 00       	mov    $0x4036b4,%esi
  402db3:	bf 01 00 00 00       	mov    $0x1,%edi
  402db8:	b8 00 00 00 00       	mov    $0x0,%eax
  402dbd:	e8 5e e0 ff ff       	callq  400e20 <__printf_chk@plt>
  402dc2:	66 c7 03 4f 4b       	movw   $0x4b4f,(%rbx)
  402dc7:	c6 43 02 00          	movb   $0x0,0x2(%rbx)
  402dcb:	b8 00 00 00 00       	mov    $0x0,%eax
  402dd0:	eb 39                	jmp    402e0b <driver_post+0x6d>
  402dd2:	48 85 ff             	test   %rdi,%rdi
  402dd5:	74 26                	je     402dfd <driver_post+0x5f>
  402dd7:	80 3f 00             	cmpb   $0x0,(%rdi)
  402dda:	74 21                	je     402dfd <driver_post+0x5f>
  402ddc:	4c 89 0c 24          	mov    %r9,(%rsp)
  402de0:	49 89 c9             	mov    %rcx,%r9
  402de3:	49 89 d0             	mov    %rdx,%r8
  402de6:	48 89 f9             	mov    %rdi,%rcx
  402de9:	48 89 f2             	mov    %rsi,%rdx
  402dec:	be 33 4f 00 00       	mov    $0x4f33,%esi
  402df1:	bf a5 36 40 00       	mov    $0x4036a5,%edi
  402df6:	e8 29 f6 ff ff       	callq  402424 <submitr>
  402dfb:	eb 0e                	jmp    402e0b <driver_post+0x6d>
  402dfd:	66 c7 03 4f 4b       	movw   $0x4b4f,(%rbx)
  402e02:	c6 43 02 00          	movb   $0x0,0x2(%rbx)
  402e06:	b8 00 00 00 00       	mov    $0x0,%eax
  402e0b:	48 83 c4 10          	add    $0x10,%rsp
  402e0f:	5b                   	pop    %rbx
  402e10:	c3                   	retq   

0000000000402e11 <check>:
  402e11:	89 f8                	mov    %edi,%eax
  402e13:	c1 e8 1c             	shr    $0x1c,%eax
  402e16:	85 c0                	test   %eax,%eax
  402e18:	74 1d                	je     402e37 <check+0x26>
  402e1a:	b9 00 00 00 00       	mov    $0x0,%ecx
  402e1f:	eb 0b                	jmp    402e2c <check+0x1b>
  402e21:	89 f8                	mov    %edi,%eax
  402e23:	d3 e8                	shr    %cl,%eax
  402e25:	3c 0a                	cmp    $0xa,%al
  402e27:	74 14                	je     402e3d <check+0x2c>
  402e29:	83 c1 08             	add    $0x8,%ecx
  402e2c:	83 f9 1f             	cmp    $0x1f,%ecx
  402e2f:	7e f0                	jle    402e21 <check+0x10>
  402e31:	b8 01 00 00 00       	mov    $0x1,%eax
  402e36:	c3                   	retq   
  402e37:	b8 00 00 00 00       	mov    $0x0,%eax
  402e3c:	c3                   	retq   
  402e3d:	b8 00 00 00 00       	mov    $0x0,%eax
  402e42:	c3                   	retq   

0000000000402e43 <gencookie>:
  402e43:	53                   	push   %rbx
  402e44:	83 c7 01             	add    $0x1,%edi
  402e47:	e8 64 de ff ff       	callq  400cb0 <srandom@plt>
  402e4c:	e8 8f df ff ff       	callq  400de0 <random@plt>
  402e51:	89 c3                	mov    %eax,%ebx
  402e53:	89 c7                	mov    %eax,%edi
  402e55:	e8 b7 ff ff ff       	callq  402e11 <check>
  402e5a:	85 c0                	test   %eax,%eax
  402e5c:	74 ee                	je     402e4c <gencookie+0x9>
  402e5e:	89 d8                	mov    %ebx,%eax
  402e60:	5b                   	pop    %rbx
  402e61:	c3                   	retq   
  402e62:	66 2e 0f 1f 84 00 00 	nopw   %cs:0x0(%rax,%rax,1)
  402e69:	00 00 00 
  402e6c:	0f 1f 40 00          	nopl   0x0(%rax)

0000000000402e70 <__libc_csu_init>:
  402e70:	41 57                	push   %r15
  402e72:	41 89 ff             	mov    %edi,%r15d
  402e75:	41 56                	push   %r14
  402e77:	49 89 f6             	mov    %rsi,%r14
  402e7a:	41 55                	push   %r13
  402e7c:	49 89 d5             	mov    %rdx,%r13
  402e7f:	41 54                	push   %r12
  402e81:	4c 8d 25 88 0f 20 00 	lea    0x200f88(%rip),%r12        # 603e10 <__frame_dummy_init_array_entry>
  402e88:	55                   	push   %rbp
  402e89:	48 8d 2d 88 0f 20 00 	lea    0x200f88(%rip),%rbp        # 603e18 <__init_array_end>
  402e90:	53                   	push   %rbx
  402e91:	4c 29 e5             	sub    %r12,%rbp
  402e94:	31 db                	xor    %ebx,%ebx
  402e96:	48 c1 fd 03          	sar    $0x3,%rbp
  402e9a:	48 83 ec 08          	sub    $0x8,%rsp
  402e9e:	e8 bd dd ff ff       	callq  400c60 <_init>
  402ea3:	48 85 ed             	test   %rbp,%rbp
  402ea6:	74 1e                	je     402ec6 <__libc_csu_init+0x56>
  402ea8:	0f 1f 84 00 00 00 00 	nopl   0x0(%rax,%rax,1)
  402eaf:	00 
  402eb0:	4c 89 ea             	mov    %r13,%rdx
  402eb3:	4c 89 f6             	mov    %r14,%rsi
  402eb6:	44 89 ff             	mov    %r15d,%edi
  402eb9:	41 ff 14 dc          	callq  *(%r12,%rbx,8)
  402ebd:	48 83 c3 01          	add    $0x1,%rbx
  402ec1:	48 39 eb             	cmp    %rbp,%rbx
  402ec4:	75 ea                	jne    402eb0 <__libc_csu_init+0x40>
  402ec6:	48 83 c4 08          	add    $0x8,%rsp
  402eca:	5b                   	pop    %rbx
  402ecb:	5d                   	pop    %rbp
  402ecc:	41 5c                	pop    %r12
  402ece:	41 5d                	pop    %r13
  402ed0:	41 5e                	pop    %r14
  402ed2:	41 5f                	pop    %r15
  402ed4:	c3                   	retq   
  402ed5:	66 66 2e 0f 1f 84 00 	data32 nopw %cs:0x0(%rax,%rax,1)
  402edc:	00 00 00 00 

0000000000402ee0 <__libc_csu_fini>:
  402ee0:	f3 c3                	repz retq 

Disassembly of section .fini:

0000000000402ee4 <_fini>:
  402ee4:	48 83 ec 08          	sub    $0x8,%rsp
  402ee8:	48 83 c4 08          	add    $0x8,%rsp
  402eec:	c3                   	retq   
